ARM GAS  C:\Users\ujjjh\AppData\Local\Temp\ccwsSNUv.s 			page 1


   1              		.syntax unified
   2              		.cpu cortex-m3
   3              		.fpu softvfp
   4              		.eabi_attribute 20, 1
   5              		.eabi_attribute 21, 1
   6              		.eabi_attribute 23, 3
   7              		.eabi_attribute 24, 1
   8              		.eabi_attribute 25, 1
   9              		.eabi_attribute 26, 1
  10              		.eabi_attribute 30, 1
  11              		.eabi_attribute 34, 1
  12              		.eabi_attribute 18, 4
  13              		.thumb
  14              		.syntax unified
  15              		.file	"cyfitter_cfg.c"
  16              		.text
  17              	.Ltext0:
  18              		.cfi_sections	.debug_frame
  19              		.section	.text.CyClockStartupError,"ax",%progbits
  20              		.align	2
  21              		.thumb
  22              		.thumb_func
  23              		.type	CyClockStartupError, %function
  24              	CyClockStartupError:
  25              	.LFB3:
  26              		.file 1 "Generated_Source\\PSoC5\\cyfitter_cfg.c"
   1:Generated_Source\PSoC5/cyfitter_cfg.c **** 
   2:Generated_Source\PSoC5/cyfitter_cfg.c **** /*******************************************************************************
   3:Generated_Source\PSoC5/cyfitter_cfg.c **** * File Name: cyfitter_cfg.c
   4:Generated_Source\PSoC5/cyfitter_cfg.c **** * 
   5:Generated_Source\PSoC5/cyfitter_cfg.c **** * PSoC Creator  4.2
   6:Generated_Source\PSoC5/cyfitter_cfg.c **** *
   7:Generated_Source\PSoC5/cyfitter_cfg.c **** * Description:
   8:Generated_Source\PSoC5/cyfitter_cfg.c **** * This file contains device initialization code.
   9:Generated_Source\PSoC5/cyfitter_cfg.c **** * Except for the user defined sections in CyClockStartupError(), this file should not be modified.
  10:Generated_Source\PSoC5/cyfitter_cfg.c **** * This file is automatically generated by PSoC Creator.
  11:Generated_Source\PSoC5/cyfitter_cfg.c **** *
  12:Generated_Source\PSoC5/cyfitter_cfg.c **** ********************************************************************************
  13:Generated_Source\PSoC5/cyfitter_cfg.c **** * Copyright (c) 2007-2018 Cypress Semiconductor.  All rights reserved.
  14:Generated_Source\PSoC5/cyfitter_cfg.c **** * You may use this file only in accordance with the license, terms, conditions, 
  15:Generated_Source\PSoC5/cyfitter_cfg.c **** * disclaimers, and limitations in the end user license agreement accompanying 
  16:Generated_Source\PSoC5/cyfitter_cfg.c **** * the software package with which this file was provided.
  17:Generated_Source\PSoC5/cyfitter_cfg.c **** ********************************************************************************/
  18:Generated_Source\PSoC5/cyfitter_cfg.c **** 
  19:Generated_Source\PSoC5/cyfitter_cfg.c **** #include <string.h>
  20:Generated_Source\PSoC5/cyfitter_cfg.c **** #include "cytypes.h"
  21:Generated_Source\PSoC5/cyfitter_cfg.c **** #include "cydevice_trm.h"
  22:Generated_Source\PSoC5/cyfitter_cfg.c **** #include "cyfitter.h"
  23:Generated_Source\PSoC5/cyfitter_cfg.c **** #include "CyLib.h"
  24:Generated_Source\PSoC5/cyfitter_cfg.c **** #include "cyfitter_cfg.h"
  25:Generated_Source\PSoC5/cyfitter_cfg.c **** #include "cyapicallbacks.h"
  26:Generated_Source\PSoC5/cyfitter_cfg.c **** 
  27:Generated_Source\PSoC5/cyfitter_cfg.c **** #define CY_NEED_CYCLOCKSTARTUPERROR 1
  28:Generated_Source\PSoC5/cyfitter_cfg.c **** 
  29:Generated_Source\PSoC5/cyfitter_cfg.c **** 
  30:Generated_Source\PSoC5/cyfitter_cfg.c **** #if defined(__GNUC__) || defined(__ARMCC_VERSION)
  31:Generated_Source\PSoC5/cyfitter_cfg.c ****     #define CYPACKED 
ARM GAS  C:\Users\ujjjh\AppData\Local\Temp\ccwsSNUv.s 			page 2


  32:Generated_Source\PSoC5/cyfitter_cfg.c ****     #define CYPACKED_ATTR __attribute__ ((packed))
  33:Generated_Source\PSoC5/cyfitter_cfg.c ****     #define CYALIGNED __attribute__ ((aligned))
  34:Generated_Source\PSoC5/cyfitter_cfg.c ****     #define CY_CFG_UNUSED __attribute__ ((unused))
  35:Generated_Source\PSoC5/cyfitter_cfg.c ****     #ifndef CY_CFG_SECTION
  36:Generated_Source\PSoC5/cyfitter_cfg.c ****         #define CY_CFG_SECTION __attribute__ ((section(".psocinit")))
  37:Generated_Source\PSoC5/cyfitter_cfg.c ****     #endif
  38:Generated_Source\PSoC5/cyfitter_cfg.c ****     
  39:Generated_Source\PSoC5/cyfitter_cfg.c ****     #if defined(__ARMCC_VERSION)
  40:Generated_Source\PSoC5/cyfitter_cfg.c ****         #define CY_CFG_MEMORY_BARRIER() __memory_changed()
  41:Generated_Source\PSoC5/cyfitter_cfg.c ****     #else
  42:Generated_Source\PSoC5/cyfitter_cfg.c ****         #define CY_CFG_MEMORY_BARRIER() __sync_synchronize()
  43:Generated_Source\PSoC5/cyfitter_cfg.c ****     #endif
  44:Generated_Source\PSoC5/cyfitter_cfg.c ****     
  45:Generated_Source\PSoC5/cyfitter_cfg.c **** #elif defined(__ICCARM__)
  46:Generated_Source\PSoC5/cyfitter_cfg.c ****     #include <intrinsics.h>
  47:Generated_Source\PSoC5/cyfitter_cfg.c **** 
  48:Generated_Source\PSoC5/cyfitter_cfg.c ****     #define CYPACKED __packed
  49:Generated_Source\PSoC5/cyfitter_cfg.c ****     #define CYPACKED_ATTR 
  50:Generated_Source\PSoC5/cyfitter_cfg.c ****     #define CYALIGNED _Pragma("data_alignment=4")
  51:Generated_Source\PSoC5/cyfitter_cfg.c ****     #define CY_CFG_UNUSED _Pragma("diag_suppress=Pe177")
  52:Generated_Source\PSoC5/cyfitter_cfg.c ****     #define CY_CFG_SECTION _Pragma("location=\".psocinit\"")
  53:Generated_Source\PSoC5/cyfitter_cfg.c ****     
  54:Generated_Source\PSoC5/cyfitter_cfg.c ****     #define CY_CFG_MEMORY_BARRIER() __DMB()
  55:Generated_Source\PSoC5/cyfitter_cfg.c ****     
  56:Generated_Source\PSoC5/cyfitter_cfg.c **** #else
  57:Generated_Source\PSoC5/cyfitter_cfg.c ****     #error Unsupported toolchain
  58:Generated_Source\PSoC5/cyfitter_cfg.c **** #endif
  59:Generated_Source\PSoC5/cyfitter_cfg.c **** 
  60:Generated_Source\PSoC5/cyfitter_cfg.c **** #ifndef CYCODE
  61:Generated_Source\PSoC5/cyfitter_cfg.c ****     #define CYCODE
  62:Generated_Source\PSoC5/cyfitter_cfg.c **** #endif
  63:Generated_Source\PSoC5/cyfitter_cfg.c **** #ifndef CYDATA
  64:Generated_Source\PSoC5/cyfitter_cfg.c ****     #define CYDATA
  65:Generated_Source\PSoC5/cyfitter_cfg.c **** #endif
  66:Generated_Source\PSoC5/cyfitter_cfg.c **** #ifndef CYFAR
  67:Generated_Source\PSoC5/cyfitter_cfg.c ****     #define CYFAR
  68:Generated_Source\PSoC5/cyfitter_cfg.c **** #endif
  69:Generated_Source\PSoC5/cyfitter_cfg.c **** #ifndef CYXDATA
  70:Generated_Source\PSoC5/cyfitter_cfg.c ****     #define CYXDATA
  71:Generated_Source\PSoC5/cyfitter_cfg.c **** #endif
  72:Generated_Source\PSoC5/cyfitter_cfg.c **** 
  73:Generated_Source\PSoC5/cyfitter_cfg.c **** 
  74:Generated_Source\PSoC5/cyfitter_cfg.c **** CY_CFG_UNUSED
  75:Generated_Source\PSoC5/cyfitter_cfg.c **** static void CYMEMZERO(void *s, size_t n);
  76:Generated_Source\PSoC5/cyfitter_cfg.c **** CY_CFG_UNUSED
  77:Generated_Source\PSoC5/cyfitter_cfg.c **** static void CYMEMZERO(void *s, size_t n)
  78:Generated_Source\PSoC5/cyfitter_cfg.c **** {
  79:Generated_Source\PSoC5/cyfitter_cfg.c **** 	(void)memset(s, 0, n);
  80:Generated_Source\PSoC5/cyfitter_cfg.c **** }
  81:Generated_Source\PSoC5/cyfitter_cfg.c **** CY_CFG_UNUSED
  82:Generated_Source\PSoC5/cyfitter_cfg.c **** static void CYCONFIGCPY(void *dest, const void *src, size_t n);
  83:Generated_Source\PSoC5/cyfitter_cfg.c **** CY_CFG_UNUSED
  84:Generated_Source\PSoC5/cyfitter_cfg.c **** static void CYCONFIGCPY(void *dest, const void *src, size_t n)
  85:Generated_Source\PSoC5/cyfitter_cfg.c **** {
  86:Generated_Source\PSoC5/cyfitter_cfg.c **** 	(void)memcpy(dest, src, n);
  87:Generated_Source\PSoC5/cyfitter_cfg.c **** }
  88:Generated_Source\PSoC5/cyfitter_cfg.c **** CY_CFG_UNUSED
ARM GAS  C:\Users\ujjjh\AppData\Local\Temp\ccwsSNUv.s 			page 3


  89:Generated_Source\PSoC5/cyfitter_cfg.c **** static void CYCONFIGCPYCODE(void *dest, const void *src, size_t n);
  90:Generated_Source\PSoC5/cyfitter_cfg.c **** CY_CFG_UNUSED
  91:Generated_Source\PSoC5/cyfitter_cfg.c **** static void CYCONFIGCPYCODE(void *dest, const void *src, size_t n)
  92:Generated_Source\PSoC5/cyfitter_cfg.c **** {
  93:Generated_Source\PSoC5/cyfitter_cfg.c **** 	(void)memcpy(dest, src, n);
  94:Generated_Source\PSoC5/cyfitter_cfg.c **** }
  95:Generated_Source\PSoC5/cyfitter_cfg.c **** 
  96:Generated_Source\PSoC5/cyfitter_cfg.c **** 
  97:Generated_Source\PSoC5/cyfitter_cfg.c **** 
  98:Generated_Source\PSoC5/cyfitter_cfg.c **** 
  99:Generated_Source\PSoC5/cyfitter_cfg.c **** /* Clock startup error codes                                                   */
 100:Generated_Source\PSoC5/cyfitter_cfg.c **** #define CYCLOCKSTART_NO_ERROR    0u
 101:Generated_Source\PSoC5/cyfitter_cfg.c **** #define CYCLOCKSTART_XTAL_ERROR  1u
 102:Generated_Source\PSoC5/cyfitter_cfg.c **** #define CYCLOCKSTART_32KHZ_ERROR 2u
 103:Generated_Source\PSoC5/cyfitter_cfg.c **** #define CYCLOCKSTART_PLL_ERROR   3u
 104:Generated_Source\PSoC5/cyfitter_cfg.c **** #define CYCLOCKSTART_FLL_ERROR   4u
 105:Generated_Source\PSoC5/cyfitter_cfg.c **** #define CYCLOCKSTART_WCO_ERROR   5u
 106:Generated_Source\PSoC5/cyfitter_cfg.c **** 
 107:Generated_Source\PSoC5/cyfitter_cfg.c **** 
 108:Generated_Source\PSoC5/cyfitter_cfg.c **** #ifdef CY_NEED_CYCLOCKSTARTUPERROR
 109:Generated_Source\PSoC5/cyfitter_cfg.c **** /*******************************************************************************
 110:Generated_Source\PSoC5/cyfitter_cfg.c **** * Function Name: CyClockStartupError
 111:Generated_Source\PSoC5/cyfitter_cfg.c **** ********************************************************************************
 112:Generated_Source\PSoC5/cyfitter_cfg.c **** * Summary:
 113:Generated_Source\PSoC5/cyfitter_cfg.c **** *  If an error is encountered during clock configuration (crystal startup error,
 114:Generated_Source\PSoC5/cyfitter_cfg.c **** *  PLL lock error, etc.), the system will end up here.  Unless reimplemented by
 115:Generated_Source\PSoC5/cyfitter_cfg.c **** *  the customer, this function will stop in an infinite loop.
 116:Generated_Source\PSoC5/cyfitter_cfg.c **** *
 117:Generated_Source\PSoC5/cyfitter_cfg.c **** * Parameters:
 118:Generated_Source\PSoC5/cyfitter_cfg.c **** *   void
 119:Generated_Source\PSoC5/cyfitter_cfg.c **** *
 120:Generated_Source\PSoC5/cyfitter_cfg.c **** * Return:
 121:Generated_Source\PSoC5/cyfitter_cfg.c **** *   void
 122:Generated_Source\PSoC5/cyfitter_cfg.c **** *
 123:Generated_Source\PSoC5/cyfitter_cfg.c **** *******************************************************************************/
 124:Generated_Source\PSoC5/cyfitter_cfg.c **** CY_CFG_UNUSED
 125:Generated_Source\PSoC5/cyfitter_cfg.c **** static void CyClockStartupError(uint8 errorCode);
 126:Generated_Source\PSoC5/cyfitter_cfg.c **** CY_CFG_UNUSED
 127:Generated_Source\PSoC5/cyfitter_cfg.c **** static void CyClockStartupError(uint8 errorCode)
 128:Generated_Source\PSoC5/cyfitter_cfg.c **** {
  27              		.loc 1 128 0
  28              		.cfi_startproc
  29              		@ Volatile: function does not return.
  30              		@ args = 0, pretend = 0, frame = 0
  31              		@ frame_needed = 0, uses_anonymous_args = 0
  32              		@ link register save eliminated.
  33              	.LVL0:
  34              	.L2:
  35 0000 FEE7     		b	.L2
  36              		.cfi_endproc
  37              	.LFE3:
  38              		.size	CyClockStartupError, .-CyClockStartupError
  39 0002 00BF     		.section	.text.cfg_write_bytes32,"ax",%progbits
  40              		.align	2
  41              		.thumb
  42              		.thumb_func
  43              		.type	cfg_write_bytes32, %function
ARM GAS  C:\Users\ujjjh\AppData\Local\Temp\ccwsSNUv.s 			page 4


  44              	cfg_write_bytes32:
  45              	.LFB4:
 129:Generated_Source\PSoC5/cyfitter_cfg.c ****     /* To remove the compiler warning if errorCode not used.                */
 130:Generated_Source\PSoC5/cyfitter_cfg.c ****     errorCode = errorCode;
 131:Generated_Source\PSoC5/cyfitter_cfg.c **** 
 132:Generated_Source\PSoC5/cyfitter_cfg.c ****     /* If we have a clock startup error (bad MHz crystal, PLL lock, etc.),  */
 133:Generated_Source\PSoC5/cyfitter_cfg.c ****     /* we will end up here to allow the customer to implement something to  */
 134:Generated_Source\PSoC5/cyfitter_cfg.c ****     /* deal with the clock condition.                                       */
 135:Generated_Source\PSoC5/cyfitter_cfg.c **** 
 136:Generated_Source\PSoC5/cyfitter_cfg.c **** #ifdef CY_CFG_CLOCK_STARTUP_ERROR_CALLBACK
 137:Generated_Source\PSoC5/cyfitter_cfg.c ****     CY_CFG_Clock_Startup_ErrorCallback();
 138:Generated_Source\PSoC5/cyfitter_cfg.c **** #else
 139:Generated_Source\PSoC5/cyfitter_cfg.c ****     /*  If not using CY_CFG_CLOCK_STARTUP_ERROR_CALLBACK, place your clock startup code here. */
 140:Generated_Source\PSoC5/cyfitter_cfg.c ****     /* `#START CyClockStartupError` */
 141:Generated_Source\PSoC5/cyfitter_cfg.c **** 
 142:Generated_Source\PSoC5/cyfitter_cfg.c **** 
 143:Generated_Source\PSoC5/cyfitter_cfg.c **** 
 144:Generated_Source\PSoC5/cyfitter_cfg.c ****     /* `#END` */
 145:Generated_Source\PSoC5/cyfitter_cfg.c **** 
 146:Generated_Source\PSoC5/cyfitter_cfg.c ****     while(1) {}
 147:Generated_Source\PSoC5/cyfitter_cfg.c **** #endif /* CY_CFG_CLOCK_STARTUP_ERROR_CALLBACK */
 148:Generated_Source\PSoC5/cyfitter_cfg.c **** }
 149:Generated_Source\PSoC5/cyfitter_cfg.c **** #endif
 150:Generated_Source\PSoC5/cyfitter_cfg.c **** 
 151:Generated_Source\PSoC5/cyfitter_cfg.c **** #define CY_CFG_BASE_ADDR_COUNT 29u
 152:Generated_Source\PSoC5/cyfitter_cfg.c **** CYPACKED typedef struct
 153:Generated_Source\PSoC5/cyfitter_cfg.c **** {
 154:Generated_Source\PSoC5/cyfitter_cfg.c **** 	uint8 offset;
 155:Generated_Source\PSoC5/cyfitter_cfg.c **** 	uint8 value;
 156:Generated_Source\PSoC5/cyfitter_cfg.c **** } CYPACKED_ATTR cy_cfg_addrvalue_t;
 157:Generated_Source\PSoC5/cyfitter_cfg.c **** 
 158:Generated_Source\PSoC5/cyfitter_cfg.c **** #define cy_cfg_addr_table ((const uint32 CYFAR *)0x48000000u)
 159:Generated_Source\PSoC5/cyfitter_cfg.c **** #define cy_cfg_data_table ((const cy_cfg_addrvalue_t CYFAR *)0x48000074u)
 160:Generated_Source\PSoC5/cyfitter_cfg.c **** 
 161:Generated_Source\PSoC5/cyfitter_cfg.c **** /* IOPINS0_1 Address: CYREG_PRT1_DR Size (bytes): 10 */
 162:Generated_Source\PSoC5/cyfitter_cfg.c **** #define BS_IOPINS0_1_VAL ((const uint8 CYFAR *)0x48000400u)
 163:Generated_Source\PSoC5/cyfitter_cfg.c **** 
 164:Generated_Source\PSoC5/cyfitter_cfg.c **** /* IOPINS0_3 Address: CYREG_PRT3_DM0 Size (bytes): 8 */
 165:Generated_Source\PSoC5/cyfitter_cfg.c **** #define BS_IOPINS0_3_VAL ((const uint8 CYFAR *)0x4800040Cu)
 166:Generated_Source\PSoC5/cyfitter_cfg.c **** 
 167:Generated_Source\PSoC5/cyfitter_cfg.c **** /* IOPINS0_4 Address: CYREG_PRT4_DM0 Size (bytes): 8 */
 168:Generated_Source\PSoC5/cyfitter_cfg.c **** #define BS_IOPINS0_4_VAL ((const uint8 CYFAR *)0x48000414u)
 169:Generated_Source\PSoC5/cyfitter_cfg.c **** 
 170:Generated_Source\PSoC5/cyfitter_cfg.c **** /* CYDEV_CLKDIST_ACFG0_CFG0 Address: CYREG_CLKDIST_ACFG0_CFG0 Size (bytes): 8 */
 171:Generated_Source\PSoC5/cyfitter_cfg.c **** #define BS_CYDEV_CLKDIST_ACFG0_CFG0_VAL ((const uint8 CYFAR *)0x4800041Cu)
 172:Generated_Source\PSoC5/cyfitter_cfg.c **** 
 173:Generated_Source\PSoC5/cyfitter_cfg.c **** 
 174:Generated_Source\PSoC5/cyfitter_cfg.c **** /*******************************************************************************
 175:Generated_Source\PSoC5/cyfitter_cfg.c **** * Function Name: cfg_write_bytes32
 176:Generated_Source\PSoC5/cyfitter_cfg.c **** ********************************************************************************
 177:Generated_Source\PSoC5/cyfitter_cfg.c **** * Summary:
 178:Generated_Source\PSoC5/cyfitter_cfg.c **** *  This function is used for setting up the chip configuration areas that
 179:Generated_Source\PSoC5/cyfitter_cfg.c **** *  contain relatively sparse data.
 180:Generated_Source\PSoC5/cyfitter_cfg.c **** *
 181:Generated_Source\PSoC5/cyfitter_cfg.c **** * Parameters:
 182:Generated_Source\PSoC5/cyfitter_cfg.c **** *   void
 183:Generated_Source\PSoC5/cyfitter_cfg.c **** *
ARM GAS  C:\Users\ujjjh\AppData\Local\Temp\ccwsSNUv.s 			page 5


 184:Generated_Source\PSoC5/cyfitter_cfg.c **** * Return:
 185:Generated_Source\PSoC5/cyfitter_cfg.c **** *   void
 186:Generated_Source\PSoC5/cyfitter_cfg.c **** *
 187:Generated_Source\PSoC5/cyfitter_cfg.c **** *******************************************************************************/
 188:Generated_Source\PSoC5/cyfitter_cfg.c **** static void cfg_write_bytes32(const uint32 addr_table[], const cy_cfg_addrvalue_t data_table[]);
 189:Generated_Source\PSoC5/cyfitter_cfg.c **** static void cfg_write_bytes32(const uint32 addr_table[], const cy_cfg_addrvalue_t data_table[])
 190:Generated_Source\PSoC5/cyfitter_cfg.c **** {
  46              		.loc 1 190 0
  47              		.cfi_startproc
  48              		@ args = 0, pretend = 0, frame = 0
  49              		@ frame_needed = 0, uses_anonymous_args = 0
  50              		@ link register save eliminated.
  51              	.LVL1:
  52              		.loc 1 190 0
  53 0000 F0B4     		push	{r4, r5, r6, r7}
  54              		.cfi_def_cfa_offset 16
  55              		.cfi_offset 4, -16
  56              		.cfi_offset 5, -12
  57              		.cfi_offset 6, -8
  58              		.cfi_offset 7, -4
  59              	.LVL2:
 191:Generated_Source\PSoC5/cyfitter_cfg.c **** 	/* For 32-bit little-endian architectures */
 192:Generated_Source\PSoC5/cyfitter_cfg.c **** 	uint32 i, j = 0u;
  60              		.loc 1 192 0
  61 0002 0022     		movs	r2, #0
 193:Generated_Source\PSoC5/cyfitter_cfg.c **** 	for (i = 0u; i < CY_CFG_BASE_ADDR_COUNT; i++)
  62              		.loc 1 193 0
  63 0004 1746     		mov	r7, r2
  64 0006 11E0     		b	.L4
  65              	.LVL3:
  66              	.L7:
  67              	.LBB2:
 194:Generated_Source\PSoC5/cyfitter_cfg.c **** 	{
 195:Generated_Source\PSoC5/cyfitter_cfg.c **** 		uint32 baseAddr = addr_table[i];
  68              		.loc 1 195 0
  69 0008 50F82760 		ldr	r6, [r0, r7, lsl #2]
  70              	.LVL4:
 196:Generated_Source\PSoC5/cyfitter_cfg.c **** 		uint8 count = (uint8)baseAddr;
  71              		.loc 1 196 0
  72 000c F3B2     		uxtb	r3, r6
  73              	.LVL5:
 197:Generated_Source\PSoC5/cyfitter_cfg.c **** 		baseAddr &= 0xFFFFFF00u;
  74              		.loc 1 197 0
  75 000e 26F0FF06 		bic	r6, r6, #255
  76              	.LVL6:
 198:Generated_Source\PSoC5/cyfitter_cfg.c **** 		while (count != 0u)
  77              		.loc 1 198 0
  78 0012 08E0     		b	.L5
  79              	.L6:
 199:Generated_Source\PSoC5/cyfitter_cfg.c **** 		{
 200:Generated_Source\PSoC5/cyfitter_cfg.c **** 			CY_SET_REG8((void *)(baseAddr + data_table[j].offset), data_table[j].value);
  80              		.loc 1 200 0
  81 0014 01EB4205 		add	r5, r1, r2, lsl #1
  82 0018 11F81240 		ldrb	r4, [r1, r2, lsl #1]	@ zero_extendqisi2
  83 001c 6D78     		ldrb	r5, [r5, #1]	@ zero_extendqisi2
  84 001e A555     		strb	r5, [r4, r6]
 201:Generated_Source\PSoC5/cyfitter_cfg.c **** 			j++;
ARM GAS  C:\Users\ujjjh\AppData\Local\Temp\ccwsSNUv.s 			page 6


  85              		.loc 1 201 0
  86 0020 0132     		adds	r2, r2, #1
  87              	.LVL7:
 202:Generated_Source\PSoC5/cyfitter_cfg.c **** 			count--;
  88              		.loc 1 202 0
  89 0022 013B     		subs	r3, r3, #1
  90              	.LVL8:
  91 0024 DBB2     		uxtb	r3, r3
  92              	.LVL9:
  93              	.L5:
 198:Generated_Source\PSoC5/cyfitter_cfg.c **** 		{
  94              		.loc 1 198 0
  95 0026 002B     		cmp	r3, #0
  96 0028 F4D1     		bne	.L6
  97              	.LBE2:
 193:Generated_Source\PSoC5/cyfitter_cfg.c **** 	{
  98              		.loc 1 193 0 discriminator 2
  99 002a 0137     		adds	r7, r7, #1
 100              	.LVL10:
 101              	.L4:
 193:Generated_Source\PSoC5/cyfitter_cfg.c **** 	{
 102              		.loc 1 193 0 is_stmt 0 discriminator 1
 103 002c 1C2F     		cmp	r7, #28
 104 002e EBD9     		bls	.L7
 203:Generated_Source\PSoC5/cyfitter_cfg.c **** 		}
 204:Generated_Source\PSoC5/cyfitter_cfg.c **** 	}
 205:Generated_Source\PSoC5/cyfitter_cfg.c **** }
 105              		.loc 1 205 0 is_stmt 1
 106 0030 F0BC     		pop	{r4, r5, r6, r7}
 107              		.cfi_restore 7
 108              		.cfi_restore 6
 109              		.cfi_restore 5
 110              		.cfi_restore 4
 111              		.cfi_def_cfa_offset 0
 112              	.LVL11:
 113 0032 7047     		bx	lr
 114              		.cfi_endproc
 115              	.LFE4:
 116              		.size	cfg_write_bytes32, .-cfg_write_bytes32
 117              		.section	.text.CYMEMZERO,"ax",%progbits
 118              		.align	2
 119              		.thumb
 120              		.thumb_func
 121              		.type	CYMEMZERO, %function
 122              	CYMEMZERO:
 123              	.LFB0:
  78:Generated_Source\PSoC5/cyfitter_cfg.c **** 	(void)memset(s, 0, n);
 124              		.loc 1 78 0
 125              		.cfi_startproc
 126              		@ args = 0, pretend = 0, frame = 0
 127              		@ frame_needed = 0, uses_anonymous_args = 0
 128              	.LVL12:
 129 0000 08B5     		push	{r3, lr}
 130              		.cfi_def_cfa_offset 8
 131              		.cfi_offset 3, -8
 132              		.cfi_offset 14, -4
  79:Generated_Source\PSoC5/cyfitter_cfg.c **** }
ARM GAS  C:\Users\ujjjh\AppData\Local\Temp\ccwsSNUv.s 			page 7


 133              		.loc 1 79 0
 134 0002 0A46     		mov	r2, r1
 135 0004 0021     		movs	r1, #0
 136              	.LVL13:
 137 0006 FFF7FEFF 		bl	memset
 138              	.LVL14:
 139 000a 08BD     		pop	{r3, pc}
 140              		.cfi_endproc
 141              	.LFE0:
 142              		.size	CYMEMZERO, .-CYMEMZERO
 143              		.section	.text.AnalogSetDefault,"ax",%progbits
 144              		.align	2
 145              		.thumb
 146              		.thumb_func
 147              		.type	AnalogSetDefault, %function
 148              	AnalogSetDefault:
 149              	.LFB6:
 206:Generated_Source\PSoC5/cyfitter_cfg.c **** 
 207:Generated_Source\PSoC5/cyfitter_cfg.c **** /*******************************************************************************
 208:Generated_Source\PSoC5/cyfitter_cfg.c **** * Function Name: ClockSetup
 209:Generated_Source\PSoC5/cyfitter_cfg.c **** ********************************************************************************
 210:Generated_Source\PSoC5/cyfitter_cfg.c **** *
 211:Generated_Source\PSoC5/cyfitter_cfg.c **** * Summary:
 212:Generated_Source\PSoC5/cyfitter_cfg.c **** *  Performs the initialization of all of the clocks in the device based on the
 213:Generated_Source\PSoC5/cyfitter_cfg.c **** *  settings in the Clock tab of the DWR.  This includes enabling the requested
 214:Generated_Source\PSoC5/cyfitter_cfg.c **** *  clocks and setting the necessary dividers to produce the desired frequency. 
 215:Generated_Source\PSoC5/cyfitter_cfg.c **** *
 216:Generated_Source\PSoC5/cyfitter_cfg.c **** * Parameters:
 217:Generated_Source\PSoC5/cyfitter_cfg.c **** *  void
 218:Generated_Source\PSoC5/cyfitter_cfg.c **** *
 219:Generated_Source\PSoC5/cyfitter_cfg.c **** * Return:
 220:Generated_Source\PSoC5/cyfitter_cfg.c **** *  void
 221:Generated_Source\PSoC5/cyfitter_cfg.c **** *
 222:Generated_Source\PSoC5/cyfitter_cfg.c **** *******************************************************************************/
 223:Generated_Source\PSoC5/cyfitter_cfg.c **** static void ClockSetup(void);
 224:Generated_Source\PSoC5/cyfitter_cfg.c **** static void ClockSetup(void)
 225:Generated_Source\PSoC5/cyfitter_cfg.c **** {
 226:Generated_Source\PSoC5/cyfitter_cfg.c **** 	uint32 timeout;
 227:Generated_Source\PSoC5/cyfitter_cfg.c **** 	uint8 pllLock;
 228:Generated_Source\PSoC5/cyfitter_cfg.c **** 
 229:Generated_Source\PSoC5/cyfitter_cfg.c **** 
 230:Generated_Source\PSoC5/cyfitter_cfg.c **** 	/* Configure Digital Clocks based on settings from Clock DWR */
 231:Generated_Source\PSoC5/cyfitter_cfg.c **** 	CY_SET_XTND_REG16((void CYFAR *)(CYREG_CLKDIST_DCFG0_CFG0), 0x0002u);
 232:Generated_Source\PSoC5/cyfitter_cfg.c **** 	CY_SET_XTND_REG8((void CYFAR *)(CYREG_CLKDIST_DCFG0_CFG0 + 0x2u), 0x18u);
 233:Generated_Source\PSoC5/cyfitter_cfg.c **** 	CY_SET_XTND_REG16((void CYFAR *)(CYREG_CLKDIST_DCFG1_CFG0), 0x00FFu);
 234:Generated_Source\PSoC5/cyfitter_cfg.c **** 	CY_SET_XTND_REG8((void CYFAR *)(CYREG_CLKDIST_DCFG1_CFG0 + 0x2u), 0x19u);
 235:Generated_Source\PSoC5/cyfitter_cfg.c **** 	CY_SET_XTND_REG16((void CYFAR *)(CYREG_CLKDIST_DCFG2_CFG0), 0x01ADu);
 236:Generated_Source\PSoC5/cyfitter_cfg.c **** 	CY_SET_XTND_REG8((void CYFAR *)(CYREG_CLKDIST_DCFG2_CFG0 + 0x2u), 0x18u);
 237:Generated_Source\PSoC5/cyfitter_cfg.c **** 
 238:Generated_Source\PSoC5/cyfitter_cfg.c **** 	/* Configure Analog Clocks based on settings from Clock DWR */
 239:Generated_Source\PSoC5/cyfitter_cfg.c **** 	CYCONFIGCPY((void CYFAR *)(CYREG_CLKDIST_ACFG0_CFG0), (const void CYFAR *)(BS_CYDEV_CLKDIST_ACFG0_
 240:Generated_Source\PSoC5/cyfitter_cfg.c **** 
 241:Generated_Source\PSoC5/cyfitter_cfg.c **** 	/* Configure ILO based on settings from Clock DWR */
 242:Generated_Source\PSoC5/cyfitter_cfg.c **** 	CY_SET_XTND_REG8((void CYFAR *)(CYREG_SLOWCLK_ILO_CR0), 0x06u);
 243:Generated_Source\PSoC5/cyfitter_cfg.c **** 	CY_SET_XTND_REG8((void CYFAR *)(CYREG_CLKDIST_CR), 0x08u);
 244:Generated_Source\PSoC5/cyfitter_cfg.c **** 
 245:Generated_Source\PSoC5/cyfitter_cfg.c **** 	/* Configure XTAL based on settings from Clock DWR */
ARM GAS  C:\Users\ujjjh\AppData\Local\Temp\ccwsSNUv.s 			page 8


 246:Generated_Source\PSoC5/cyfitter_cfg.c **** 	CY_SET_XTND_REG16((void CYFAR *)(CYREG_FASTCLK_XMHZ_CFG0), 0x3313u);
 247:Generated_Source\PSoC5/cyfitter_cfg.c **** 	CY_SET_XTND_REG8((void CYFAR *)(CYREG_FASTCLK_XMHZ_CSR), 0x05u);
 248:Generated_Source\PSoC5/cyfitter_cfg.c **** 	/* Wait up to 130000us for the XTAL to lock */
 249:Generated_Source\PSoC5/cyfitter_cfg.c **** 	CY_GET_XTND_REG8((void CYFAR *)CYREG_FASTCLK_XMHZ_CSR);
 250:Generated_Source\PSoC5/cyfitter_cfg.c **** 	for (timeout = 130000u / 10u; (timeout > 0u) && ((CY_GET_XTND_REG8((void CYFAR *)CYREG_FASTCLK_XMH
 251:Generated_Source\PSoC5/cyfitter_cfg.c **** 	{ 
 252:Generated_Source\PSoC5/cyfitter_cfg.c **** 		
 253:Generated_Source\PSoC5/cyfitter_cfg.c **** 		CyDelayCycles(10u * 48u); /* Delay 10us based on 48MHz clock */
 254:Generated_Source\PSoC5/cyfitter_cfg.c **** 	}
 255:Generated_Source\PSoC5/cyfitter_cfg.c **** 	if (timeout == 0u)
 256:Generated_Source\PSoC5/cyfitter_cfg.c **** 	{
 257:Generated_Source\PSoC5/cyfitter_cfg.c **** 		CyClockStartupError(CYCLOCKSTART_XTAL_ERROR);
 258:Generated_Source\PSoC5/cyfitter_cfg.c **** 	}
 259:Generated_Source\PSoC5/cyfitter_cfg.c **** 	CY_SET_XTND_REG8((void CYFAR *)(CYREG_CLKDIST_CR), 0x48u);
 260:Generated_Source\PSoC5/cyfitter_cfg.c **** 
 261:Generated_Source\PSoC5/cyfitter_cfg.c **** 	/* Configure IMO based on settings from Clock DWR */
 262:Generated_Source\PSoC5/cyfitter_cfg.c **** 	CY_SET_XTND_REG8((void CYFAR *)(CYREG_FASTCLK_IMO_CR), 0x70u);
 263:Generated_Source\PSoC5/cyfitter_cfg.c **** 
 264:Generated_Source\PSoC5/cyfitter_cfg.c **** 	/* Configure PLL based on settings from Clock DWR */
 265:Generated_Source\PSoC5/cyfitter_cfg.c **** 	CY_SET_XTND_REG16((void CYFAR *)(CYREG_FASTCLK_PLL_P), 0x070Bu);
 266:Generated_Source\PSoC5/cyfitter_cfg.c **** 	CY_SET_XTND_REG16((void CYFAR *)(CYREG_FASTCLK_PLL_CFG0), 0x1251u);
 267:Generated_Source\PSoC5/cyfitter_cfg.c **** 	/* Wait up to 250us for the PLL to lock */
 268:Generated_Source\PSoC5/cyfitter_cfg.c **** 	pllLock = 0u;
 269:Generated_Source\PSoC5/cyfitter_cfg.c **** 	for (timeout = 250u / 10u; (timeout > 0u) && (pllLock != 0x03u); timeout--)
 270:Generated_Source\PSoC5/cyfitter_cfg.c **** 	{ 
 271:Generated_Source\PSoC5/cyfitter_cfg.c **** 		pllLock = 0x03u & ((uint8)((uint8)pllLock << 1) | ((CY_GET_XTND_REG8((void CYFAR *)CYREG_FASTCLK_
 272:Generated_Source\PSoC5/cyfitter_cfg.c **** 		CyDelayCycles(10u * 48u); /* Delay 10us based on 48MHz clock */
 273:Generated_Source\PSoC5/cyfitter_cfg.c **** 	}
 274:Generated_Source\PSoC5/cyfitter_cfg.c **** 	/* If we ran out of time the PLL didn't lock so go to the error function */
 275:Generated_Source\PSoC5/cyfitter_cfg.c **** 	if (timeout == 0u)
 276:Generated_Source\PSoC5/cyfitter_cfg.c **** 	{
 277:Generated_Source\PSoC5/cyfitter_cfg.c **** 		CyClockStartupError(CYCLOCKSTART_PLL_ERROR);
 278:Generated_Source\PSoC5/cyfitter_cfg.c **** 	}
 279:Generated_Source\PSoC5/cyfitter_cfg.c **** 
 280:Generated_Source\PSoC5/cyfitter_cfg.c **** 	/* Configure Bus/Master Clock based on settings from Clock DWR */
 281:Generated_Source\PSoC5/cyfitter_cfg.c **** 	CY_SET_XTND_REG16((void CYFAR *)(CYREG_CLKDIST_MSTR0), 0x0100u);
 282:Generated_Source\PSoC5/cyfitter_cfg.c **** 	CY_SET_XTND_REG8((void CYFAR *)(CYREG_CLKDIST_MSTR0), 0x07u);
 283:Generated_Source\PSoC5/cyfitter_cfg.c **** 	CY_SET_XTND_REG8((void CYFAR *)(CYREG_CLKDIST_BCFG0), 0x00u);
 284:Generated_Source\PSoC5/cyfitter_cfg.c **** 	CY_SET_XTND_REG8((void CYFAR *)(CYREG_CLKDIST_BCFG2), 0x48u);
 285:Generated_Source\PSoC5/cyfitter_cfg.c **** 	CY_SET_XTND_REG8((void CYFAR *)(CYREG_CLKDIST_MSTR0), 0x00u);
 286:Generated_Source\PSoC5/cyfitter_cfg.c **** 
 287:Generated_Source\PSoC5/cyfitter_cfg.c **** 	/* Configure USB Clock based on settings from Clock DWR */
 288:Generated_Source\PSoC5/cyfitter_cfg.c **** 	CY_SET_XTND_REG8((void CYFAR *)(CYREG_CLKDIST_UCFG), 0x00u);
 289:Generated_Source\PSoC5/cyfitter_cfg.c **** 	CY_SET_XTND_REG8((void CYFAR *)(CYREG_CLKDIST_LD), 0x02u);
 290:Generated_Source\PSoC5/cyfitter_cfg.c **** 	CY_SET_XTND_REG8((void CYFAR *)(CYREG_CLKDIST_DLY1), 0x04u);
 291:Generated_Source\PSoC5/cyfitter_cfg.c **** 
 292:Generated_Source\PSoC5/cyfitter_cfg.c **** 	CY_SET_XTND_REG8((void CYFAR *)(CYREG_PM_ACT_CFG2), ((CY_GET_XTND_REG8((void CYFAR *)CYREG_PM_ACT_
 293:Generated_Source\PSoC5/cyfitter_cfg.c **** 	CY_SET_XTND_REG8((void CYFAR *)(CYREG_PM_ACT_CFG1), ((CY_GET_XTND_REG8((void CYFAR *)CYREG_PM_ACT_
 294:Generated_Source\PSoC5/cyfitter_cfg.c **** 	CY_SET_XTND_REG8((void CYFAR *)(CYREG_PM_ACT_CFG0), ((CY_GET_XTND_REG8((void CYFAR *)CYREG_PM_ACT_
 295:Generated_Source\PSoC5/cyfitter_cfg.c **** }
 296:Generated_Source\PSoC5/cyfitter_cfg.c **** 
 297:Generated_Source\PSoC5/cyfitter_cfg.c **** 
 298:Generated_Source\PSoC5/cyfitter_cfg.c **** /* Analog API Functions */
 299:Generated_Source\PSoC5/cyfitter_cfg.c **** 
 300:Generated_Source\PSoC5/cyfitter_cfg.c **** 
 301:Generated_Source\PSoC5/cyfitter_cfg.c **** /*******************************************************************************
 302:Generated_Source\PSoC5/cyfitter_cfg.c **** * Function Name: AnalogSetDefault
ARM GAS  C:\Users\ujjjh\AppData\Local\Temp\ccwsSNUv.s 			page 9


 303:Generated_Source\PSoC5/cyfitter_cfg.c **** ********************************************************************************
 304:Generated_Source\PSoC5/cyfitter_cfg.c **** *
 305:Generated_Source\PSoC5/cyfitter_cfg.c **** * Summary:
 306:Generated_Source\PSoC5/cyfitter_cfg.c **** *  Sets up the analog portions of the chip to default values based on chip
 307:Generated_Source\PSoC5/cyfitter_cfg.c **** *  configuration options from the project.
 308:Generated_Source\PSoC5/cyfitter_cfg.c **** *
 309:Generated_Source\PSoC5/cyfitter_cfg.c **** * Parameters:
 310:Generated_Source\PSoC5/cyfitter_cfg.c **** *  void
 311:Generated_Source\PSoC5/cyfitter_cfg.c **** *
 312:Generated_Source\PSoC5/cyfitter_cfg.c **** * Return:
 313:Generated_Source\PSoC5/cyfitter_cfg.c **** *  void
 314:Generated_Source\PSoC5/cyfitter_cfg.c **** *
 315:Generated_Source\PSoC5/cyfitter_cfg.c **** *******************************************************************************/
 316:Generated_Source\PSoC5/cyfitter_cfg.c **** static void AnalogSetDefault(void);
 317:Generated_Source\PSoC5/cyfitter_cfg.c **** static void AnalogSetDefault(void)
 318:Generated_Source\PSoC5/cyfitter_cfg.c **** {
 150              		.loc 1 318 0
 151              		.cfi_startproc
 152              		@ args = 0, pretend = 0, frame = 0
 153              		@ frame_needed = 0, uses_anonymous_args = 0
 154 0000 2DE9F041 		push	{r4, r5, r6, r7, r8, lr}
 155              		.cfi_def_cfa_offset 24
 156              		.cfi_offset 4, -24
 157              		.cfi_offset 5, -20
 158              		.cfi_offset 6, -16
 159              		.cfi_offset 7, -12
 160              		.cfi_offset 8, -8
 161              		.cfi_offset 14, -4
 319:Generated_Source\PSoC5/cyfitter_cfg.c **** 	uint8 bg_xover_inl_trim = CY_GET_XTND_REG8((void CYFAR *)(CYREG_FLSHID_MFG_CFG_BG_XOVER_INL_TRIM +
 162              		.loc 1 319 0
 163 0004 404B     		ldr	r3, .L13
 164 0006 1B78     		ldrb	r3, [r3]	@ zero_extendqisi2
 165 0008 DBB2     		uxtb	r3, r3
 166              	.LVL15:
 320:Generated_Source\PSoC5/cyfitter_cfg.c **** 	uint8 cr4 = CY_GET_XTND_REG8((void CYFAR *)(CYREG_RESET_CR4));
 167              		.loc 1 320 0
 168 000a 404E     		ldr	r6, .L13+4
 169 000c 3478     		ldrb	r4, [r6]	@ zero_extendqisi2
 170 000e E4B2     		uxtb	r4, r4
 171              	.LVL16:
 321:Generated_Source\PSoC5/cyfitter_cfg.c **** 	uint8 cr5 = CY_GET_XTND_REG8((void CYFAR *)(CYREG_RESET_CR5));
 172              		.loc 1 321 0
 173 0010 3F4F     		ldr	r7, .L13+8
 174 0012 3D78     		ldrb	r5, [r7]	@ zero_extendqisi2
 175 0014 EDB2     		uxtb	r5, r5
 176              	.LVL17:
 322:Generated_Source\PSoC5/cyfitter_cfg.c **** 	CY_SET_XTND_REG8((void CYFAR *)(CYREG_BG_DFT0), (bg_xover_inl_trim & 0x07u));
 177              		.loc 1 322 0
 178 0016 03F00701 		and	r1, r3, #7
 179 001a 3E4A     		ldr	r2, .L13+12
 180 001c 1170     		strb	r1, [r2]
 323:Generated_Source\PSoC5/cyfitter_cfg.c **** 	CY_SET_XTND_REG8((void CYFAR *)(CYREG_BG_DFT1), ((bg_xover_inl_trim >> 4) & 0x0Fu));
 181              		.loc 1 323 0
 182 001e 1B09     		lsrs	r3, r3, #4
 183              	.LVL18:
 184 0020 0132     		adds	r2, r2, #1
 185 0022 1370     		strb	r3, [r2]
ARM GAS  C:\Users\ujjjh\AppData\Local\Temp\ccwsSNUv.s 			page 10


 324:Generated_Source\PSoC5/cyfitter_cfg.c **** 	/* Disable PRES while setting up SAR voltage reference */
 325:Generated_Source\PSoC5/cyfitter_cfg.c **** 	CY_SET_XTND_REG8((void CYFAR *)(CYREG_RESET_CR4), (cr4 | 0x03u));
 186              		.loc 1 325 0
 187 0024 44F00303 		orr	r3, r4, #3
 188 0028 3370     		strb	r3, [r6]
 326:Generated_Source\PSoC5/cyfitter_cfg.c **** 	CY_SET_XTND_REG8((void CYFAR *)(CYREG_RESET_CR5), (cr5 | 0x03u));
 189              		.loc 1 326 0
 190 002a 45F00303 		orr	r3, r5, #3
 191 002e 3B70     		strb	r3, [r7]
 327:Generated_Source\PSoC5/cyfitter_cfg.c **** 	CY_SET_XTND_REG16((void CYFAR *)CYREG_PRT3_AMUX, 0x2001u);
 192              		.loc 1 327 0
 193 0030 42F20102 		movw	r2, #8193
 194 0034 384B     		ldr	r3, .L13+16
 195 0036 1A80     		strh	r2, [r3]	@ movhi
 328:Generated_Source\PSoC5/cyfitter_cfg.c **** 	CY_SET_XTND_REG8((void CYFAR *)CYREG_PRT4_AG, 0x02u);
 196              		.loc 1 328 0
 197 0038 4FF0020C 		mov	ip, #2
 198 003c 1133     		adds	r3, r3, #17
 199 003e 83F800C0 		strb	ip, [r3]
 329:Generated_Source\PSoC5/cyfitter_cfg.c **** 	CY_SET_XTND_REG8((void CYFAR *)CYREG_BG_CR0, 0x0Cu);
 200              		.loc 1 329 0
 201 0042 0C22     		movs	r2, #12
 202 0044 03F21F73 		addw	r3, r3, #1823
 203 0048 1A70     		strb	r2, [r3]
 330:Generated_Source\PSoC5/cyfitter_cfg.c **** 	CY_SET_XTND_REG8((void CYFAR *)CYREG_SAR0_CSR1, 0x40u);
 204              		.loc 1 330 0
 205 004a 4023     		movs	r3, #64
 206 004c 334A     		ldr	r2, .L13+20
 207 004e 1370     		strb	r3, [r2]
 331:Generated_Source\PSoC5/cyfitter_cfg.c **** 	CY_SET_XTND_REG8((void CYFAR *)CYREG_SAR0_CSR3, 0x40u);
 208              		.loc 1 331 0
 209 0050 0232     		adds	r2, r2, #2
 210 0052 1370     		strb	r3, [r2]
 332:Generated_Source\PSoC5/cyfitter_cfg.c **** 	CY_SET_XTND_REG8((void CYFAR *)CYREG_SAR1_CSR1, 0x40u);
 211              		.loc 1 332 0
 212 0054 0632     		adds	r2, r2, #6
 213 0056 1370     		strb	r3, [r2]
 333:Generated_Source\PSoC5/cyfitter_cfg.c **** 	CY_SET_XTND_REG8((void CYFAR *)CYREG_SAR1_CSR3, 0x40u);
 214              		.loc 1 333 0
 215 0058 0232     		adds	r2, r2, #2
 216 005a 1370     		strb	r3, [r2]
 334:Generated_Source\PSoC5/cyfitter_cfg.c **** 	CY_SET_XTND_REG8((void CYFAR *)CYREG_SC1_SW3, 0x01u);
 217              		.loc 1 334 0
 218 005c 0122     		movs	r2, #1
 219 005e 3049     		ldr	r1, .L13+24
 220 0060 0A70     		strb	r2, [r1]
 335:Generated_Source\PSoC5/cyfitter_cfg.c **** 	CY_SET_XTND_REG8((void CYFAR *)CYREG_SC1_SW4, 0x10u);
 221              		.loc 1 335 0
 222 0062 4FF0100E 		mov	lr, #16
 223 0066 0131     		adds	r1, r1, #1
 224 0068 81F800E0 		strb	lr, [r1]
 336:Generated_Source\PSoC5/cyfitter_cfg.c **** 	CY_SET_XTND_REG8((void CYFAR *)CYREG_SC1_SW8, 0x80u);
 225              		.loc 1 336 0
 226 006c 8020     		movs	r0, #128
 227 006e 0431     		adds	r1, r1, #4
 228 0070 0870     		strb	r0, [r1]
 337:Generated_Source\PSoC5/cyfitter_cfg.c **** 	CY_SET_XTND_REG8((void CYFAR *)CYREG_SC2_SW0, 0x20u);
ARM GAS  C:\Users\ujjjh\AppData\Local\Temp\ccwsSNUv.s 			page 11


 229              		.loc 1 337 0
 230 0072 2021     		movs	r1, #32
 231 0074 DFF8B480 		ldr	r8, .L13+36
 232 0078 88F80010 		strb	r1, [r8]
 338:Generated_Source\PSoC5/cyfitter_cfg.c **** 	CY_SET_XTND_REG8((void CYFAR *)CYREG_SC2_SW4, 0x80u);
 233              		.loc 1 338 0
 234 007c 08F10408 		add	r8, r8, #4
 235 0080 88F80000 		strb	r0, [r8]
 339:Generated_Source\PSoC5/cyfitter_cfg.c **** 	CY_SET_XTND_REG8((void CYFAR *)CYREG_SC2_SW8, 0x40u);
 236              		.loc 1 339 0
 237 0084 08F10408 		add	r8, r8, #4
 238 0088 88F80030 		strb	r3, [r8]
 340:Generated_Source\PSoC5/cyfitter_cfg.c **** 	CY_SET_XTND_REG8((void CYFAR *)CYREG_DAC0_SW0, 0x01u);
 239              		.loc 1 340 0
 240 008c 08F15808 		add	r8, r8, #88
 241 0090 88F80020 		strb	r2, [r8]
 341:Generated_Source\PSoC5/cyfitter_cfg.c **** 	CY_SET_XTND_REG8((void CYFAR *)CYREG_DAC1_SW0, 0x02u);
 242              		.loc 1 341 0
 243 0094 08F10808 		add	r8, r8, #8
 244 0098 88F800C0 		strb	ip, [r8]
 342:Generated_Source\PSoC5/cyfitter_cfg.c **** 	CY_SET_XTND_REG8((void CYFAR *)CYREG_DAC3_SW0, 0x10u);
 245              		.loc 1 342 0
 246 009c 08F11008 		add	r8, r8, #16
 247 00a0 88F800E0 		strb	lr, [r8]
 343:Generated_Source\PSoC5/cyfitter_cfg.c **** 	CY_SET_XTND_REG8((void CYFAR *)CYREG_CMP1_SW0, 0x20u);
 248              		.loc 1 343 0
 249 00a4 08F13008 		add	r8, r8, #48
 250 00a8 88F80010 		strb	r1, [r8]
 344:Generated_Source\PSoC5/cyfitter_cfg.c **** 	CY_SET_XTND_REG8((void CYFAR *)CYREG_CMP1_SW4, 0x01u);
 251              		.loc 1 344 0
 252 00ac 08F10408 		add	r8, r8, #4
 253 00b0 88F80020 		strb	r2, [r8]
 345:Generated_Source\PSoC5/cyfitter_cfg.c **** 	CY_SET_XTND_REG8((void CYFAR *)CYREG_CMP3_SW0, 0x02u);
 254              		.loc 1 345 0
 255 00b4 08F10C08 		add	r8, r8, #12
 256 00b8 88F800C0 		strb	ip, [r8]
 346:Generated_Source\PSoC5/cyfitter_cfg.c **** 	CY_SET_XTND_REG8((void CYFAR *)CYREG_CMP3_SW4, 0x20u);
 257              		.loc 1 346 0
 258 00bc DFF870C0 		ldr	ip, .L13+40
 259 00c0 8CF80010 		strb	r1, [ip]
 347:Generated_Source\PSoC5/cyfitter_cfg.c **** 	CY_SET_XTND_REG8((void CYFAR *)CYREG_DSM0_SW0, 0x90u);
 260              		.loc 1 347 0
 261 00c4 4FF09008 		mov	r8, #144
 262 00c8 0CF1240C 		add	ip, ip, #36
 263 00cc 8CF80080 		strb	r8, [ip]
 348:Generated_Source\PSoC5/cyfitter_cfg.c **** 	CY_SET_XTND_REG8((void CYFAR *)CYREG_DSM0_SW2, 0x01u);
 264              		.loc 1 348 0
 265 00d0 0CF1020C 		add	ip, ip, #2
 266 00d4 8CF80020 		strb	r2, [ip]
 349:Generated_Source\PSoC5/cyfitter_cfg.c **** 	CY_SET_XTND_REG8((void CYFAR *)CYREG_SAR0_SW0, 0x40u);
 267              		.loc 1 349 0
 268 00d8 0CF11E0C 		add	ip, ip, #30
 269 00dc 8CF80030 		strb	r3, [ip]
 350:Generated_Source\PSoC5/cyfitter_cfg.c **** 	CY_SET_XTND_REG8((void CYFAR *)CYREG_SAR0_SW4, 0x10u);
 270              		.loc 1 350 0
 271 00e0 104B     		ldr	r3, .L13+28
 272 00e2 83F800E0 		strb	lr, [r3]
ARM GAS  C:\Users\ujjjh\AppData\Local\Temp\ccwsSNUv.s 			page 12


 351:Generated_Source\PSoC5/cyfitter_cfg.c **** 	CY_SET_XTND_REG8((void CYFAR *)CYREG_SAR1_SW0, 0x80u);
 273              		.loc 1 351 0
 274 00e6 0433     		adds	r3, r3, #4
 275 00e8 1870     		strb	r0, [r3]
 352:Generated_Source\PSoC5/cyfitter_cfg.c **** 	CY_SET_XTND_REG8((void CYFAR *)CYREG_SAR1_SW3, 0x20u);
 276              		.loc 1 352 0
 277 00ea 0333     		adds	r3, r3, #3
 278 00ec 1970     		strb	r1, [r3]
 353:Generated_Source\PSoC5/cyfitter_cfg.c **** 	CY_SET_XTND_REG8((void CYFAR *)CYREG_BUS_SW0, 0x01u);
 279              		.loc 1 353 0
 280 00ee 2D33     		adds	r3, r3, #45
 281 00f0 1A70     		strb	r2, [r3]
 354:Generated_Source\PSoC5/cyfitter_cfg.c **** 	CyDelayUs(10u); /* Allow vref to settle before re-enabling PRES */
 282              		.loc 1 354 0
 283 00f2 0A20     		movs	r0, #10
 284 00f4 FFF7FEFF 		bl	CyDelayUs
 285              	.LVL19:
 355:Generated_Source\PSoC5/cyfitter_cfg.c **** 	CY_SET_XTND_REG8((void CYFAR *)(CYREG_RESET_CR5), (cr5));
 286              		.loc 1 355 0
 287 00f8 3D70     		strb	r5, [r7]
 356:Generated_Source\PSoC5/cyfitter_cfg.c **** 	CY_SET_XTND_REG8((void CYFAR *)(CYREG_RESET_CR4), (cr4));
 288              		.loc 1 356 0
 289 00fa 3470     		strb	r4, [r6]
 357:Generated_Source\PSoC5/cyfitter_cfg.c **** 	CY_SET_XTND_REG8((void CYFAR *)CYREG_PUMP_CR0, 0x44u);
 290              		.loc 1 357 0
 291 00fc 4422     		movs	r2, #68
 292 00fe 0A4B     		ldr	r3, .L13+32
 293 0100 1A70     		strb	r2, [r3]
 294 0102 BDE8F081 		pop	{r4, r5, r6, r7, r8, pc}
 295              	.LVL20:
 296              	.L14:
 297 0106 00BF     		.align	2
 298              	.L13:
 299 0108 CF010049 		.word	1224737231
 300 010c F8460040 		.word	1073759992
 301 0110 F9460040 		.word	1073759993
 302 0114 6E580040 		.word	1073764462
 303 0118 3C510040 		.word	1073762620
 304 011c 01590040 		.word	1073764609
 305 0120 135A0040 		.word	1073764883
 306 0124 245B0040 		.word	1073765156
 307 0128 76580040 		.word	1073764470
 308 012c 205A0040 		.word	1073764896
 309 0130 DC5A0040 		.word	1073765084
 310              		.cfi_endproc
 311              	.LFE6:
 312              		.size	AnalogSetDefault, .-AnalogSetDefault
 313              		.section	.text.CYCONFIGCPY,"ax",%progbits
 314              		.align	2
 315              		.thumb
 316              		.thumb_func
 317              		.type	CYCONFIGCPY, %function
 318              	CYCONFIGCPY:
 319              	.LFB1:
  85:Generated_Source\PSoC5/cyfitter_cfg.c **** 	(void)memcpy(dest, src, n);
 320              		.loc 1 85 0
 321              		.cfi_startproc
ARM GAS  C:\Users\ujjjh\AppData\Local\Temp\ccwsSNUv.s 			page 13


 322              		@ args = 0, pretend = 0, frame = 0
 323              		@ frame_needed = 0, uses_anonymous_args = 0
 324              	.LVL21:
 325 0000 08B5     		push	{r3, lr}
 326              		.cfi_def_cfa_offset 8
 327              		.cfi_offset 3, -8
 328              		.cfi_offset 14, -4
  86:Generated_Source\PSoC5/cyfitter_cfg.c **** }
 329              		.loc 1 86 0
 330 0002 FFF7FEFF 		bl	memcpy
 331              	.LVL22:
 332 0006 08BD     		pop	{r3, pc}
 333              		.cfi_endproc
 334              	.LFE1:
 335              		.size	CYCONFIGCPY, .-CYCONFIGCPY
 336              		.section	.text.ClockSetup,"ax",%progbits
 337              		.align	2
 338              		.thumb
 339              		.thumb_func
 340              		.type	ClockSetup, %function
 341              	ClockSetup:
 342              	.LFB5:
 225:Generated_Source\PSoC5/cyfitter_cfg.c **** 	uint32 timeout;
 343              		.loc 1 225 0
 344              		.cfi_startproc
 345              		@ args = 0, pretend = 0, frame = 0
 346              		@ frame_needed = 0, uses_anonymous_args = 0
 347 0000 38B5     		push	{r3, r4, r5, lr}
 348              		.cfi_def_cfa_offset 16
 349              		.cfi_offset 3, -16
 350              		.cfi_offset 4, -12
 351              		.cfi_offset 5, -8
 352              		.cfi_offset 14, -4
 231:Generated_Source\PSoC5/cyfitter_cfg.c **** 	CY_SET_XTND_REG8((void CYFAR *)(CYREG_CLKDIST_DCFG0_CFG0 + 0x2u), 0x18u);
 353              		.loc 1 231 0
 354 0002 0222     		movs	r2, #2
 355 0004 414B     		ldr	r3, .L27
 356 0006 1A80     		strh	r2, [r3]	@ movhi
 232:Generated_Source\PSoC5/cyfitter_cfg.c **** 	CY_SET_XTND_REG16((void CYFAR *)(CYREG_CLKDIST_DCFG1_CFG0), 0x00FFu);
 357              		.loc 1 232 0
 358 0008 1823     		movs	r3, #24
 359 000a 414A     		ldr	r2, .L27+4
 360 000c 1370     		strb	r3, [r2]
 233:Generated_Source\PSoC5/cyfitter_cfg.c **** 	CY_SET_XTND_REG8((void CYFAR *)(CYREG_CLKDIST_DCFG1_CFG0 + 0x2u), 0x19u);
 361              		.loc 1 233 0
 362 000e FF21     		movs	r1, #255
 363 0010 0232     		adds	r2, r2, #2
 364 0012 1180     		strh	r1, [r2]	@ movhi
 234:Generated_Source\PSoC5/cyfitter_cfg.c **** 	CY_SET_XTND_REG16((void CYFAR *)(CYREG_CLKDIST_DCFG2_CFG0), 0x01ADu);
 365              		.loc 1 234 0
 366 0014 1921     		movs	r1, #25
 367 0016 0232     		adds	r2, r2, #2
 368 0018 1170     		strb	r1, [r2]
 235:Generated_Source\PSoC5/cyfitter_cfg.c **** 	CY_SET_XTND_REG8((void CYFAR *)(CYREG_CLKDIST_DCFG2_CFG0 + 0x2u), 0x18u);
 369              		.loc 1 235 0
 370 001a 40F2AD11 		movw	r1, #429
 371 001e 0232     		adds	r2, r2, #2
ARM GAS  C:\Users\ujjjh\AppData\Local\Temp\ccwsSNUv.s 			page 14


 372 0020 1180     		strh	r1, [r2]	@ movhi
 236:Generated_Source\PSoC5/cyfitter_cfg.c **** 
 373              		.loc 1 236 0
 374 0022 0232     		adds	r2, r2, #2
 375 0024 1370     		strb	r3, [r2]
 239:Generated_Source\PSoC5/cyfitter_cfg.c **** 
 376              		.loc 1 239 0
 377 0026 0822     		movs	r2, #8
 378 0028 3A49     		ldr	r1, .L27+8
 379 002a 3B48     		ldr	r0, .L27+12
 380 002c FFF7FEFF 		bl	CYCONFIGCPY
 381              	.LVL23:
 242:Generated_Source\PSoC5/cyfitter_cfg.c **** 	CY_SET_XTND_REG8((void CYFAR *)(CYREG_CLKDIST_CR), 0x08u);
 382              		.loc 1 242 0
 383 0030 0622     		movs	r2, #6
 384 0032 3A4B     		ldr	r3, .L27+16
 385 0034 1A70     		strb	r2, [r3]
 243:Generated_Source\PSoC5/cyfitter_cfg.c **** 
 386              		.loc 1 243 0
 387 0036 0822     		movs	r2, #8
 388 0038 4FF04023 		mov	r3, #1073758208
 389 003c 1A70     		strb	r2, [r3]
 246:Generated_Source\PSoC5/cyfitter_cfg.c **** 	CY_SET_XTND_REG8((void CYFAR *)(CYREG_FASTCLK_XMHZ_CSR), 0x05u);
 390              		.loc 1 246 0
 391 003e 43F21332 		movw	r2, #13075
 392 0042 03F21223 		addw	r3, r3, #530
 393 0046 1A80     		strh	r2, [r3]	@ movhi
 247:Generated_Source\PSoC5/cyfitter_cfg.c **** 	/* Wait up to 130000us for the XTAL to lock */
 394              		.loc 1 247 0
 395 0048 023B     		subs	r3, r3, #2
 396 004a 0522     		movs	r2, #5
 397 004c 1A70     		strb	r2, [r3]
 249:Generated_Source\PSoC5/cyfitter_cfg.c **** 	for (timeout = 130000u / 10u; (timeout > 0u) && ((CY_GET_XTND_REG8((void CYFAR *)CYREG_FASTCLK_XMH
 398              		.loc 1 249 0
 399 004e 1B78     		ldrb	r3, [r3]	@ zero_extendqisi2
 400              	.LVL24:
 250:Generated_Source\PSoC5/cyfitter_cfg.c **** 	{ 
 401              		.loc 1 250 0
 402 0050 43F2C824 		movw	r4, #13000
 403 0054 04E0     		b	.L18
 404              	.LVL25:
 405              	.L20:
 253:Generated_Source\PSoC5/cyfitter_cfg.c **** 	}
 406              		.loc 1 253 0 discriminator 4
 407 0056 4FF4F070 		mov	r0, #480
 408 005a FFF7FEFF 		bl	CyDelayCycles
 409              	.LVL26:
 250:Generated_Source\PSoC5/cyfitter_cfg.c **** 	{ 
 410              		.loc 1 250 0 discriminator 4
 411 005e 013C     		subs	r4, r4, #1
 412              	.LVL27:
 413              	.L18:
 250:Generated_Source\PSoC5/cyfitter_cfg.c **** 	{ 
 414              		.loc 1 250 0 is_stmt 0 discriminator 1
 415 0060 24B1     		cbz	r4, .L19
 250:Generated_Source\PSoC5/cyfitter_cfg.c **** 	{ 
 416              		.loc 1 250 0 discriminator 3
ARM GAS  C:\Users\ujjjh\AppData\Local\Temp\ccwsSNUv.s 			page 15


 417 0062 2F4B     		ldr	r3, .L27+20
 418 0064 1B78     		ldrb	r3, [r3]	@ zero_extendqisi2
 419 0066 13F0800F 		tst	r3, #128
 420 006a F4D1     		bne	.L20
 421              	.L19:
 255:Generated_Source\PSoC5/cyfitter_cfg.c **** 	{
 422              		.loc 1 255 0 is_stmt 1
 423 006c 14B9     		cbnz	r4, .L21
 257:Generated_Source\PSoC5/cyfitter_cfg.c **** 	}
 424              		.loc 1 257 0
 425 006e 0120     		movs	r0, #1
 426 0070 FFF7FEFF 		bl	CyClockStartupError
 427              	.LVL28:
 428              	.L21:
 259:Generated_Source\PSoC5/cyfitter_cfg.c **** 
 429              		.loc 1 259 0
 430 0074 4822     		movs	r2, #72
 431 0076 4FF04023 		mov	r3, #1073758208
 432 007a 1A70     		strb	r2, [r3]
 262:Generated_Source\PSoC5/cyfitter_cfg.c **** 
 433              		.loc 1 262 0
 434 007c 7022     		movs	r2, #112
 435 007e 03F50073 		add	r3, r3, #512
 436 0082 1A70     		strb	r2, [r3]
 265:Generated_Source\PSoC5/cyfitter_cfg.c **** 	CY_SET_XTND_REG16((void CYFAR *)(CYREG_FASTCLK_PLL_CFG0), 0x1251u);
 437              		.loc 1 265 0
 438 0084 40F20B72 		movw	r2, #1803
 439 0088 2233     		adds	r3, r3, #34
 440 008a 1A80     		strh	r2, [r3]	@ movhi
 266:Generated_Source\PSoC5/cyfitter_cfg.c **** 	/* Wait up to 250us for the PLL to lock */
 441              		.loc 1 266 0
 442 008c 41F25122 		movw	r2, #4689
 443 0090 023B     		subs	r3, r3, #2
 444 0092 1A80     		strh	r2, [r3]	@ movhi
 445              	.LVL29:
 268:Generated_Source\PSoC5/cyfitter_cfg.c **** 	for (timeout = 250u / 10u; (timeout > 0u) && (pllLock != 0x03u); timeout--)
 446              		.loc 1 268 0
 447 0094 0024     		movs	r4, #0
 269:Generated_Source\PSoC5/cyfitter_cfg.c **** 	{ 
 448              		.loc 1 269 0
 449 0096 1925     		movs	r5, #25
 450 0098 0CE0     		b	.L22
 451              	.LVL30:
 452              	.L24:
 271:Generated_Source\PSoC5/cyfitter_cfg.c **** 		CyDelayCycles(10u * 48u); /* Delay 10us based on 48MHz clock */
 453              		.loc 1 271 0 discriminator 4
 454 009a 224B     		ldr	r3, .L27+24
 455 009c 1B78     		ldrb	r3, [r3]	@ zero_extendqisi2
 456 009e 03F00103 		and	r3, r3, #1
 457 00a2 43EA4404 		orr	r4, r3, r4, lsl #1
 458              	.LVL31:
 459 00a6 04F00304 		and	r4, r4, #3
 460              	.LVL32:
 272:Generated_Source\PSoC5/cyfitter_cfg.c **** 	}
 461              		.loc 1 272 0 discriminator 4
 462 00aa 4FF4F070 		mov	r0, #480
 463 00ae FFF7FEFF 		bl	CyDelayCycles
ARM GAS  C:\Users\ujjjh\AppData\Local\Temp\ccwsSNUv.s 			page 16


 464              	.LVL33:
 269:Generated_Source\PSoC5/cyfitter_cfg.c **** 	{ 
 465              		.loc 1 269 0 discriminator 4
 466 00b2 013D     		subs	r5, r5, #1
 467              	.LVL34:
 468              	.L22:
 269:Generated_Source\PSoC5/cyfitter_cfg.c **** 	{ 
 469              		.loc 1 269 0 is_stmt 0 discriminator 1
 470 00b4 0DB1     		cbz	r5, .L23
 269:Generated_Source\PSoC5/cyfitter_cfg.c **** 	{ 
 471              		.loc 1 269 0 discriminator 3
 472 00b6 032C     		cmp	r4, #3
 473 00b8 EFD1     		bne	.L24
 474              	.L23:
 275:Generated_Source\PSoC5/cyfitter_cfg.c **** 	{
 475              		.loc 1 275 0 is_stmt 1
 476 00ba 15B9     		cbnz	r5, .L25
 277:Generated_Source\PSoC5/cyfitter_cfg.c **** 	}
 477              		.loc 1 277 0
 478 00bc 0320     		movs	r0, #3
 479 00be FFF7FEFF 		bl	CyClockStartupError
 480              	.LVL35:
 481              	.L25:
 281:Generated_Source\PSoC5/cyfitter_cfg.c **** 	CY_SET_XTND_REG8((void CYFAR *)(CYREG_CLKDIST_MSTR0), 0x07u);
 482              		.loc 1 281 0
 483 00c2 194A     		ldr	r2, .L27+28
 484 00c4 4FF48073 		mov	r3, #256
 485 00c8 1380     		strh	r3, [r2]	@ movhi
 282:Generated_Source\PSoC5/cyfitter_cfg.c **** 	CY_SET_XTND_REG8((void CYFAR *)(CYREG_CLKDIST_BCFG0), 0x00u);
 486              		.loc 1 282 0
 487 00ca 0723     		movs	r3, #7
 488 00cc 1370     		strb	r3, [r2]
 283:Generated_Source\PSoC5/cyfitter_cfg.c **** 	CY_SET_XTND_REG8((void CYFAR *)(CYREG_CLKDIST_BCFG2), 0x48u);
 489              		.loc 1 283 0
 490 00ce 0023     		movs	r3, #0
 491 00d0 1649     		ldr	r1, .L27+32
 492 00d2 0B70     		strb	r3, [r1]
 284:Generated_Source\PSoC5/cyfitter_cfg.c **** 	CY_SET_XTND_REG8((void CYFAR *)(CYREG_CLKDIST_MSTR0), 0x00u);
 493              		.loc 1 284 0
 494 00d4 4820     		movs	r0, #72
 495 00d6 0231     		adds	r1, r1, #2
 496 00d8 0870     		strb	r0, [r1]
 285:Generated_Source\PSoC5/cyfitter_cfg.c **** 
 497              		.loc 1 285 0
 498 00da 1370     		strb	r3, [r2]
 288:Generated_Source\PSoC5/cyfitter_cfg.c **** 	CY_SET_XTND_REG8((void CYFAR *)(CYREG_CLKDIST_LD), 0x02u);
 499              		.loc 1 288 0
 500 00dc 0532     		adds	r2, r2, #5
 501 00de 1370     		strb	r3, [r2]
 289:Generated_Source\PSoC5/cyfitter_cfg.c **** 	CY_SET_XTND_REG8((void CYFAR *)(CYREG_CLKDIST_DLY1), 0x04u);
 502              		.loc 1 289 0
 503 00e0 0222     		movs	r2, #2
 504 00e2 134B     		ldr	r3, .L27+36
 505 00e4 1A70     		strb	r2, [r3]
 290:Generated_Source\PSoC5/cyfitter_cfg.c **** 
 506              		.loc 1 290 0
 507 00e6 0422     		movs	r2, #4
ARM GAS  C:\Users\ujjjh\AppData\Local\Temp\ccwsSNUv.s 			page 17


 508 00e8 0A33     		adds	r3, r3, #10
 509 00ea 1A70     		strb	r2, [r3]
 292:Generated_Source\PSoC5/cyfitter_cfg.c **** 	CY_SET_XTND_REG8((void CYFAR *)(CYREG_PM_ACT_CFG1), ((CY_GET_XTND_REG8((void CYFAR *)CYREG_PM_ACT_
 510              		.loc 1 292 0
 511 00ec 114A     		ldr	r2, .L27+40
 512 00ee 1378     		ldrb	r3, [r2]	@ zero_extendqisi2
 513 00f0 43F00703 		orr	r3, r3, #7
 514 00f4 1370     		strb	r3, [r2]
 293:Generated_Source\PSoC5/cyfitter_cfg.c **** 	CY_SET_XTND_REG8((void CYFAR *)(CYREG_PM_ACT_CFG0), ((CY_GET_XTND_REG8((void CYFAR *)CYREG_PM_ACT_
 515              		.loc 1 293 0
 516 00f6 013A     		subs	r2, r2, #1
 517 00f8 1378     		ldrb	r3, [r2]	@ zero_extendqisi2
 518 00fa 43F00303 		orr	r3, r3, #3
 519 00fe 1370     		strb	r3, [r2]
 294:Generated_Source\PSoC5/cyfitter_cfg.c **** }
 520              		.loc 1 294 0
 521 0100 013A     		subs	r2, r2, #1
 522 0102 1378     		ldrb	r3, [r2]	@ zero_extendqisi2
 523 0104 43F08003 		orr	r3, r3, #128
 524 0108 1370     		strb	r3, [r2]
 525 010a 38BD     		pop	{r3, r4, r5, pc}
 526              	.LVL36:
 527              	.L28:
 528              		.align	2
 529              	.L27:
 530 010c 80400040 		.word	1073758336
 531 0110 82400040 		.word	1073758338
 532 0114 1C040048 		.word	1207960604
 533 0118 00410040 		.word	1073758464
 534 011c 00430040 		.word	1073758976
 535 0120 10420040 		.word	1073758736
 536 0124 25420040 		.word	1073758757
 537 0128 04400040 		.word	1073758212
 538 012c 06400040 		.word	1073758214
 539 0130 01400040 		.word	1073758209
 540 0134 A2430040 		.word	1073759138
 541              		.cfi_endproc
 542              	.LFE5:
 543              		.size	ClockSetup, .-ClockSetup
 544              		.section	.text.SetAnalogRoutingPumps,"ax",%progbits
 545              		.align	2
 546              		.global	SetAnalogRoutingPumps
 547              		.thumb
 548              		.thumb_func
 549              		.type	SetAnalogRoutingPumps, %function
 550              	SetAnalogRoutingPumps:
 551              	.LFB7:
 358:Generated_Source\PSoC5/cyfitter_cfg.c **** }
 359:Generated_Source\PSoC5/cyfitter_cfg.c **** 
 360:Generated_Source\PSoC5/cyfitter_cfg.c **** 
 361:Generated_Source\PSoC5/cyfitter_cfg.c **** /*******************************************************************************
 362:Generated_Source\PSoC5/cyfitter_cfg.c **** * Function Name: SetAnalogRoutingPumps
 363:Generated_Source\PSoC5/cyfitter_cfg.c **** ********************************************************************************
 364:Generated_Source\PSoC5/cyfitter_cfg.c **** *
 365:Generated_Source\PSoC5/cyfitter_cfg.c **** * Summary:
 366:Generated_Source\PSoC5/cyfitter_cfg.c **** * Enables or disables the analog pumps feeding analog routing switches.
 367:Generated_Source\PSoC5/cyfitter_cfg.c **** * Intended to be called at startup, based on the Vdda system configuration;
ARM GAS  C:\Users\ujjjh\AppData\Local\Temp\ccwsSNUv.s 			page 18


 368:Generated_Source\PSoC5/cyfitter_cfg.c **** * may be called during operation when the user informs us that the Vdda voltage
 369:Generated_Source\PSoC5/cyfitter_cfg.c **** * crossed the pump threshold.
 370:Generated_Source\PSoC5/cyfitter_cfg.c **** *
 371:Generated_Source\PSoC5/cyfitter_cfg.c **** * Parameters:
 372:Generated_Source\PSoC5/cyfitter_cfg.c **** *  enabled - 1 to enable the pumps, 0 to disable the pumps
 373:Generated_Source\PSoC5/cyfitter_cfg.c **** *
 374:Generated_Source\PSoC5/cyfitter_cfg.c **** * Return:
 375:Generated_Source\PSoC5/cyfitter_cfg.c **** *  void
 376:Generated_Source\PSoC5/cyfitter_cfg.c **** *
 377:Generated_Source\PSoC5/cyfitter_cfg.c **** *******************************************************************************/
 378:Generated_Source\PSoC5/cyfitter_cfg.c **** void SetAnalogRoutingPumps(uint8 enabled)
 379:Generated_Source\PSoC5/cyfitter_cfg.c **** {
 552              		.loc 1 379 0
 553              		.cfi_startproc
 554              		@ args = 0, pretend = 0, frame = 0
 555              		@ frame_needed = 0, uses_anonymous_args = 0
 556              		@ link register save eliminated.
 557              	.LVL37:
 380:Generated_Source\PSoC5/cyfitter_cfg.c **** 	uint8 regValue = CY_GET_XTND_REG8((void CYFAR *)CYREG_PUMP_CR0);
 558              		.loc 1 380 0
 559 0000 054B     		ldr	r3, .L32
 560 0002 1B78     		ldrb	r3, [r3]	@ zero_extendqisi2
 561 0004 DBB2     		uxtb	r3, r3
 562              	.LVL38:
 381:Generated_Source\PSoC5/cyfitter_cfg.c **** 	if (enabled != 0u)
 563              		.loc 1 381 0
 564 0006 10B1     		cbz	r0, .L30
 382:Generated_Source\PSoC5/cyfitter_cfg.c **** 	{
 383:Generated_Source\PSoC5/cyfitter_cfg.c **** 		regValue |= 0x22u;
 565              		.loc 1 383 0
 566 0008 43F02203 		orr	r3, r3, #34
 567              	.LVL39:
 568 000c 01E0     		b	.L31
 569              	.L30:
 384:Generated_Source\PSoC5/cyfitter_cfg.c **** 	}
 385:Generated_Source\PSoC5/cyfitter_cfg.c **** 	else
 386:Generated_Source\PSoC5/cyfitter_cfg.c **** 	{
 387:Generated_Source\PSoC5/cyfitter_cfg.c **** 		regValue &= (uint8)~0x22u;
 570              		.loc 1 387 0
 571 000e 03F0DD03 		and	r3, r3, #221
 572              	.LVL40:
 573              	.L31:
 388:Generated_Source\PSoC5/cyfitter_cfg.c **** 	}
 389:Generated_Source\PSoC5/cyfitter_cfg.c **** 	CY_SET_XTND_REG8((void CYFAR *)CYREG_PUMP_CR0, regValue);
 574              		.loc 1 389 0
 575 0012 014A     		ldr	r2, .L32
 576 0014 1370     		strb	r3, [r2]
 577 0016 7047     		bx	lr
 578              	.L33:
 579              		.align	2
 580              	.L32:
 581 0018 76580040 		.word	1073764470
 582              		.cfi_endproc
 583              	.LFE7:
 584              		.size	SetAnalogRoutingPumps, .-SetAnalogRoutingPumps
 585              		.section	.text.cyfitter_cfg,"ax",%progbits
 586              		.align	2
ARM GAS  C:\Users\ujjjh\AppData\Local\Temp\ccwsSNUv.s 			page 19


 587              		.global	cyfitter_cfg
 588              		.thumb
 589              		.thumb_func
 590              		.type	cyfitter_cfg, %function
 591              	cyfitter_cfg:
 592              	.LFB8:
 390:Generated_Source\PSoC5/cyfitter_cfg.c **** }
 391:Generated_Source\PSoC5/cyfitter_cfg.c **** 
 392:Generated_Source\PSoC5/cyfitter_cfg.c **** 
 393:Generated_Source\PSoC5/cyfitter_cfg.c **** 
 394:Generated_Source\PSoC5/cyfitter_cfg.c **** 
 395:Generated_Source\PSoC5/cyfitter_cfg.c **** /*******************************************************************************
 396:Generated_Source\PSoC5/cyfitter_cfg.c **** * Function Name: cyfitter_cfg
 397:Generated_Source\PSoC5/cyfitter_cfg.c **** ********************************************************************************
 398:Generated_Source\PSoC5/cyfitter_cfg.c **** * Summary:
 399:Generated_Source\PSoC5/cyfitter_cfg.c **** *  This function is called by the start-up code for the selected device. It
 400:Generated_Source\PSoC5/cyfitter_cfg.c **** *  performs all of the necessary device configuration based on the design
 401:Generated_Source\PSoC5/cyfitter_cfg.c **** *  settings.  This includes settings from the Design Wide Resources (DWR) such
 402:Generated_Source\PSoC5/cyfitter_cfg.c **** *  as Clocks and Pins as well as any component configuration that is necessary.
 403:Generated_Source\PSoC5/cyfitter_cfg.c **** *
 404:Generated_Source\PSoC5/cyfitter_cfg.c **** * Parameters:
 405:Generated_Source\PSoC5/cyfitter_cfg.c **** *   void
 406:Generated_Source\PSoC5/cyfitter_cfg.c **** *
 407:Generated_Source\PSoC5/cyfitter_cfg.c **** * Return:
 408:Generated_Source\PSoC5/cyfitter_cfg.c **** *   void
 409:Generated_Source\PSoC5/cyfitter_cfg.c **** *
 410:Generated_Source\PSoC5/cyfitter_cfg.c **** *******************************************************************************/
 411:Generated_Source\PSoC5/cyfitter_cfg.c **** 
 412:Generated_Source\PSoC5/cyfitter_cfg.c **** void cyfitter_cfg(void)
 413:Generated_Source\PSoC5/cyfitter_cfg.c **** {
 593              		.loc 1 413 0
 594              		.cfi_startproc
 595              		@ args = 0, pretend = 0, frame = 0
 596              		@ frame_needed = 0, uses_anonymous_args = 0
 597 0000 38B5     		push	{r3, r4, r5, lr}
 598              		.cfi_def_cfa_offset 16
 599              		.cfi_offset 3, -16
 600              		.cfi_offset 4, -12
 601              		.cfi_offset 5, -8
 602              		.cfi_offset 14, -4
 414:Generated_Source\PSoC5/cyfitter_cfg.c **** #ifdef CYGlobalIntDisable
 415:Generated_Source\PSoC5/cyfitter_cfg.c **** 	/* Disable interrupts by default. Let user enable if/when they want. */
 416:Generated_Source\PSoC5/cyfitter_cfg.c **** 	CYGlobalIntDisable
 603              		.loc 1 416 0
 604              		.syntax unified
 605              	@ 416 "Generated_Source\PSoC5\cyfitter_cfg.c" 1
 606 0002 72B6     		CPSID   i
 607              	@ 0 "" 2
 417:Generated_Source\PSoC5/cyfitter_cfg.c **** #endif
 418:Generated_Source\PSoC5/cyfitter_cfg.c **** 
 419:Generated_Source\PSoC5/cyfitter_cfg.c **** 	/* Enable/Disable Debug functionality based on settings from System DWR */
 420:Generated_Source\PSoC5/cyfitter_cfg.c **** 	CY_SET_XTND_REG8((void CYFAR *)CYREG_MLOGIC_DEBUG, (CY_GET_XTND_REG8((void CYFAR *)CYREG_MLOGIC_DE
 608              		.loc 1 420 0
 609              		.thumb
 610              		.syntax unified
 611 0004 2F4A     		ldr	r2, .L38
 612 0006 1378     		ldrb	r3, [r2]	@ zero_extendqisi2
ARM GAS  C:\Users\ujjjh\AppData\Local\Temp\ccwsSNUv.s 			page 20


 613 0008 43F00403 		orr	r3, r3, #4
 614 000c 1370     		strb	r3, [r2]
 615              	.LVL41:
 616              	.LBB3:
 421:Generated_Source\PSoC5/cyfitter_cfg.c **** 
 422:Generated_Source\PSoC5/cyfitter_cfg.c **** 	{
 423:Generated_Source\PSoC5/cyfitter_cfg.c **** 
 424:Generated_Source\PSoC5/cyfitter_cfg.c **** 		CYPACKED typedef struct {
 425:Generated_Source\PSoC5/cyfitter_cfg.c **** 			void CYFAR *address;
 426:Generated_Source\PSoC5/cyfitter_cfg.c **** 			uint16 size;
 427:Generated_Source\PSoC5/cyfitter_cfg.c **** 		} CYPACKED_ATTR cfg_memset_t;
 428:Generated_Source\PSoC5/cyfitter_cfg.c **** 
 429:Generated_Source\PSoC5/cyfitter_cfg.c **** 		static const cfg_memset_t CYCODE cfg_memset_list[] = {
 430:Generated_Source\PSoC5/cyfitter_cfg.c **** 			/* address, size */
 431:Generated_Source\PSoC5/cyfitter_cfg.c **** 			{(void CYFAR *)(CYREG_PRT0_DR), 16u},
 432:Generated_Source\PSoC5/cyfitter_cfg.c **** 			{(void CYFAR *)(CYREG_PRT2_DR), 16u},
 433:Generated_Source\PSoC5/cyfitter_cfg.c **** 			{(void CYFAR *)(CYREG_PRT5_DR), 32u},
 434:Generated_Source\PSoC5/cyfitter_cfg.c **** 			{(void CYFAR *)(CYREG_PRT12_DR), 16u},
 435:Generated_Source\PSoC5/cyfitter_cfg.c **** 			{(void CYFAR *)(CYREG_PRT15_DR), 16u},
 436:Generated_Source\PSoC5/cyfitter_cfg.c **** 			{(void CYFAR *)(CYDEV_UCFG_B0_P0_U0_BASE), 4096u},
 437:Generated_Source\PSoC5/cyfitter_cfg.c **** 			{(void CYFAR *)(CYDEV_UCFG_B1_P2_U0_BASE), 2048u},
 438:Generated_Source\PSoC5/cyfitter_cfg.c **** 			{(void CYFAR *)(CYDEV_UCFG_DSI0_BASE), 2560u},
 439:Generated_Source\PSoC5/cyfitter_cfg.c **** 			{(void CYFAR *)(CYDEV_UCFG_DSI12_BASE), 512u},
 440:Generated_Source\PSoC5/cyfitter_cfg.c **** 			{(void CYFAR *)(CYREG_BCTL0_MDCLK_EN), 32u},
 441:Generated_Source\PSoC5/cyfitter_cfg.c **** 		};
 442:Generated_Source\PSoC5/cyfitter_cfg.c **** 
 443:Generated_Source\PSoC5/cyfitter_cfg.c **** 		uint8 CYDATA i;
 444:Generated_Source\PSoC5/cyfitter_cfg.c **** 
 445:Generated_Source\PSoC5/cyfitter_cfg.c **** 		/* Zero out critical memory blocks before beginning configuration */
 446:Generated_Source\PSoC5/cyfitter_cfg.c **** 		for (i = 0u; i < (sizeof(cfg_memset_list)/sizeof(cfg_memset_list[0])); i++)
 617              		.loc 1 446 0
 618 000e 0024     		movs	r4, #0
 619 0010 0CE0     		b	.L35
 620              	.LVL42:
 621              	.L36:
 622              	.LBB4:
 447:Generated_Source\PSoC5/cyfitter_cfg.c **** 		{
 448:Generated_Source\PSoC5/cyfitter_cfg.c **** 			const cfg_memset_t CYCODE * CYDATA ms = &cfg_memset_list[i];
 449:Generated_Source\PSoC5/cyfitter_cfg.c **** 			CYMEMZERO(ms->address, (size_t)(uint32)(ms->size));
 623              		.loc 1 449 0 discriminator 3
 624 0012 2D4D     		ldr	r5, .L38+4
 625 0014 6300     		lsls	r3, r4, #1
 626 0016 1919     		adds	r1, r3, r4
 627 0018 4A00     		lsls	r2, r1, #1
 628 001a 1146     		mov	r1, r2
 629 001c 2A44     		add	r2, r2, r5
 630 001e 0846     		mov	r0, r1
 631 0020 9188     		ldrh	r1, [r2, #4]
 632 0022 2858     		ldr	r0, [r5, r0]	@ unaligned
 633 0024 FFF7FEFF 		bl	CYMEMZERO
 634              	.LVL43:
 635              	.LBE4:
 446:Generated_Source\PSoC5/cyfitter_cfg.c **** 		{
 636              		.loc 1 446 0 discriminator 3
 637 0028 0134     		adds	r4, r4, #1
 638              	.LVL44:
 639 002a E4B2     		uxtb	r4, r4
ARM GAS  C:\Users\ujjjh\AppData\Local\Temp\ccwsSNUv.s 			page 21


 640              	.LVL45:
 641              	.L35:
 446:Generated_Source\PSoC5/cyfitter_cfg.c **** 		{
 642              		.loc 1 446 0 is_stmt 0 discriminator 1
 643 002c 092C     		cmp	r4, #9
 644 002e F0D9     		bls	.L36
 450:Generated_Source\PSoC5/cyfitter_cfg.c **** 		}
 451:Generated_Source\PSoC5/cyfitter_cfg.c **** 
 452:Generated_Source\PSoC5/cyfitter_cfg.c **** 		cfg_write_bytes32(cy_cfg_addr_table, cy_cfg_data_table);
 645              		.loc 1 452 0 is_stmt 1
 646 0030 2649     		ldr	r1, .L38+8
 647 0032 4FF09040 		mov	r0, #1207959552
 648 0036 FFF7FEFF 		bl	cfg_write_bytes32
 649              	.LVL46:
 453:Generated_Source\PSoC5/cyfitter_cfg.c **** 
 454:Generated_Source\PSoC5/cyfitter_cfg.c **** 		/* Perform normal device configuration. Order is not critical for these items. */
 455:Generated_Source\PSoC5/cyfitter_cfg.c **** 		CY_SET_XTND_REG16((void CYFAR *)(CYREG_LUT1_CR), 0x0103u);
 650              		.loc 1 455 0
 651 003a 40F20312 		movw	r2, #259
 652 003e 244B     		ldr	r3, .L38+12
 653 0040 1A80     		strh	r2, [r3]	@ movhi
 456:Generated_Source\PSoC5/cyfitter_cfg.c **** 		CY_SET_XTND_REG16((void CYFAR *)(CYREG_LUT3_CR), 0x0303u);
 654              		.loc 1 456 0
 655 0042 40F20332 		movw	r2, #771
 656 0046 0433     		adds	r3, r3, #4
 657 0048 1A80     		strh	r2, [r3]	@ movhi
 457:Generated_Source\PSoC5/cyfitter_cfg.c **** 
 458:Generated_Source\PSoC5/cyfitter_cfg.c **** 		/* Enable digital routing */
 459:Generated_Source\PSoC5/cyfitter_cfg.c **** 		CY_SET_XTND_REG8((void CYFAR *)CYREG_BCTL0_BANK_CTL, CY_GET_XTND_REG8((void CYFAR *)CYREG_BCTL0_B
 658              		.loc 1 459 0
 659 004a 224A     		ldr	r2, .L38+16
 660 004c 1378     		ldrb	r3, [r2]	@ zero_extendqisi2
 661 004e 43F00203 		orr	r3, r3, #2
 662 0052 1370     		strb	r3, [r2]
 460:Generated_Source\PSoC5/cyfitter_cfg.c **** 		CY_SET_XTND_REG8((void CYFAR *)CYREG_BCTL1_BANK_CTL, CY_GET_XTND_REG8((void CYFAR *)CYREG_BCTL1_B
 663              		.loc 1 460 0
 664 0054 1032     		adds	r2, r2, #16
 665 0056 1378     		ldrb	r3, [r2]	@ zero_extendqisi2
 666 0058 43F00203 		orr	r3, r3, #2
 667 005c 1370     		strb	r3, [r2]
 461:Generated_Source\PSoC5/cyfitter_cfg.c **** 
 462:Generated_Source\PSoC5/cyfitter_cfg.c **** 		/* Enable UDB array */
 463:Generated_Source\PSoC5/cyfitter_cfg.c **** 		CY_SET_XTND_REG8((void CYFAR *)CYREG_PM_ACT_CFG0, CY_GET_XTND_REG8((void CYFAR *)CYREG_PM_ACT_CFG
 668              		.loc 1 463 0
 669 005e 1E4C     		ldr	r4, .L38+20
 670              	.LVL47:
 671 0060 2378     		ldrb	r3, [r4]	@ zero_extendqisi2
 672 0062 43F04003 		orr	r3, r3, #64
 673 0066 2370     		strb	r3, [r4]
 464:Generated_Source\PSoC5/cyfitter_cfg.c **** 		CY_SET_XTND_REG8((void CYFAR *)CYREG_PM_AVAIL_CR2, CY_GET_XTND_REG8((void CYFAR *)CYREG_PM_AVAIL_
 674              		.loc 1 464 0
 675 0068 A2F58632 		sub	r2, r2, #68608
 676 006c 513A     		subs	r2, r2, #81
 677 006e 1378     		ldrb	r3, [r2]	@ zero_extendqisi2
 678 0070 43F01003 		orr	r3, r3, #16
 679 0074 1370     		strb	r3, [r2]
 680              	.LBE3:
ARM GAS  C:\Users\ujjjh\AppData\Local\Temp\ccwsSNUv.s 			page 22


 465:Generated_Source\PSoC5/cyfitter_cfg.c **** 	}
 466:Generated_Source\PSoC5/cyfitter_cfg.c **** 
 467:Generated_Source\PSoC5/cyfitter_cfg.c **** 
 468:Generated_Source\PSoC5/cyfitter_cfg.c **** 	/* Perform second pass device configuration. These items must be configured in specific order afte
 469:Generated_Source\PSoC5/cyfitter_cfg.c **** 	CYCONFIGCPY((void CYFAR *)(CYREG_PRT1_DR), (const void CYFAR *)(BS_IOPINS0_1_VAL), 10u);
 681              		.loc 1 469 0
 682 0076 0A22     		movs	r2, #10
 683 0078 1849     		ldr	r1, .L38+24
 684 007a 1948     		ldr	r0, .L38+28
 685 007c FFF7FEFF 		bl	CYCONFIGCPY
 686              	.LVL48:
 470:Generated_Source\PSoC5/cyfitter_cfg.c **** 	CYCONFIGCPY((void CYFAR *)(CYREG_PRT3_DM0), (const void CYFAR *)(BS_IOPINS0_3_VAL), 8u);
 687              		.loc 1 470 0
 688 0080 0822     		movs	r2, #8
 689 0082 1849     		ldr	r1, .L38+32
 690 0084 1848     		ldr	r0, .L38+36
 691 0086 FFF7FEFF 		bl	CYCONFIGCPY
 692              	.LVL49:
 471:Generated_Source\PSoC5/cyfitter_cfg.c **** 	CYCONFIGCPY((void CYFAR *)(CYREG_PRT4_DM0), (const void CYFAR *)(BS_IOPINS0_4_VAL), 8u);
 693              		.loc 1 471 0
 694 008a 0822     		movs	r2, #8
 695 008c 1749     		ldr	r1, .L38+40
 696 008e 1848     		ldr	r0, .L38+44
 697 0090 FFF7FEFF 		bl	CYCONFIGCPY
 698              	.LVL50:
 472:Generated_Source\PSoC5/cyfitter_cfg.c **** 	/* Switch Boost to the precision bandgap reference from its internal reference */
 473:Generated_Source\PSoC5/cyfitter_cfg.c **** 	CY_SET_REG8((void CYXDATA *)CYREG_BOOST_CR2, (CY_GET_REG8((void CYXDATA *)CYREG_BOOST_CR2) | 0x08u
 699              		.loc 1 473 0
 700 0094 174A     		ldr	r2, .L38+48
 701 0096 1378     		ldrb	r3, [r2]	@ zero_extendqisi2
 702 0098 43F00803 		orr	r3, r3, #8
 703 009c 1370     		strb	r3, [r2]
 474:Generated_Source\PSoC5/cyfitter_cfg.c **** 
 475:Generated_Source\PSoC5/cyfitter_cfg.c **** 	/* Set Flash Cycles based on max possible frequency in case a glitch occurs during ClockSetup(). *
 476:Generated_Source\PSoC5/cyfitter_cfg.c **** 	CY_SET_XTND_REG8((void CYFAR *)(CYREG_CACHE_CC_CTL), (((CYDEV_INSTRUCT_CACHE_ENABLED) != 0) ? 0x61
 704              		.loc 1 476 0
 705 009e 164D     		ldr	r5, .L38+52
 706 00a0 6123     		movs	r3, #97
 707 00a2 2B70     		strb	r3, [r5]
 477:Generated_Source\PSoC5/cyfitter_cfg.c **** 	/* Setup clocks based on selections from Clock DWR */
 478:Generated_Source\PSoC5/cyfitter_cfg.c **** 	ClockSetup();
 708              		.loc 1 478 0
 709 00a4 FFF7FEFF 		bl	ClockSetup
 710              	.LVL51:
 479:Generated_Source\PSoC5/cyfitter_cfg.c **** 	/* Set Flash Cycles based on newly configured 33.00MHz Bus Clock. */
 480:Generated_Source\PSoC5/cyfitter_cfg.c **** 	CY_SET_XTND_REG8((void CYFAR *)(CYREG_CACHE_CC_CTL), (((CYDEV_INSTRUCT_CACHE_ENABLED) != 0) ? 0x81
 711              		.loc 1 480 0
 712 00a8 8123     		movs	r3, #129
 713 00aa 2B70     		strb	r3, [r5]
 481:Generated_Source\PSoC5/cyfitter_cfg.c **** 	CY_SET_XTND_REG8((void CYFAR *)(CYREG_PANTHER_WAITPIPE), 0x01u);
 714              		.loc 1 481 0
 715 00ac 0122     		movs	r2, #1
 716 00ae 134B     		ldr	r3, .L38+56
 717 00b0 1A70     		strb	r2, [r3]
 482:Generated_Source\PSoC5/cyfitter_cfg.c **** 
 483:Generated_Source\PSoC5/cyfitter_cfg.c **** 	/* Perform basic analog initialization to defaults */
 484:Generated_Source\PSoC5/cyfitter_cfg.c **** 	AnalogSetDefault();
ARM GAS  C:\Users\ujjjh\AppData\Local\Temp\ccwsSNUv.s 			page 23


 718              		.loc 1 484 0
 719 00b2 FFF7FEFF 		bl	AnalogSetDefault
 720              	.LVL52:
 485:Generated_Source\PSoC5/cyfitter_cfg.c **** 
 486:Generated_Source\PSoC5/cyfitter_cfg.c **** 	/* Configure alternate active mode */
 487:Generated_Source\PSoC5/cyfitter_cfg.c **** 	CYCONFIGCPY((void CYFAR *)CYDEV_PM_STBY_BASE, (const void CYFAR *)CYDEV_PM_ACT_BASE, 14u);
 721              		.loc 1 487 0
 722 00b6 0E22     		movs	r2, #14
 723 00b8 2146     		mov	r1, r4
 724 00ba 1148     		ldr	r0, .L38+60
 725 00bc FFF7FEFF 		bl	CYCONFIGCPY
 726              	.LVL53:
 727 00c0 38BD     		pop	{r3, r4, r5, pc}
 728              	.L39:
 729 00c2 00BF     		.align	2
 730              	.L38:
 731 00c4 E8460040 		.word	1073759976
 732 00c8 00000000 		.word	.LANCHOR0
 733 00cc 74000048 		.word	1207959668
 734 00d0 4A580040 		.word	1073764426
 735 00d4 03500140 		.word	1073827843
 736 00d8 A0430040 		.word	1073759136
 737 00dc 00040048 		.word	1207960576
 738 00e0 10510040 		.word	1073762576
 739 00e4 0C040048 		.word	1207960588
 740 00e8 32510040 		.word	1073762610
 741 00ec 14040048 		.word	1207960596
 742 00f0 42510040 		.word	1073762626
 743 00f4 22430040 		.word	1073759010
 744 00f8 00480040 		.word	1073760256
 745 00fc 04000840 		.word	1074266116
 746 0100 B0430040 		.word	1073759152
 747              		.cfi_endproc
 748              	.LFE8:
 749              		.size	cyfitter_cfg, .-cyfitter_cfg
 750              		.section	.rodata
 751              		.align	2
 752              		.set	.LANCHOR0,. + 0
 753              		.type	cfg_memset_list.5018, %object
 754              		.size	cfg_memset_list.5018, 60
 755              	cfg_memset_list.5018:
 756 0000 00510040 		.word	1073762560
 757 0004 1000     		.short	16
 758 0006 20510040 		.4byte	1073762592
 759 000a 1000     		.short	16
 760 000c 50510040 		.word	1073762640
 761 0010 2000     		.short	32
 762 0012 C0510040 		.4byte	1073762752
 763 0016 1000     		.short	16
 764 0018 F0510040 		.word	1073762800
 765 001c 1000     		.short	16
 766 001e 00000140 		.4byte	1073807360
 767 0022 0010     		.short	4096
 768 0024 00140140 		.word	1073812480
 769 0028 0008     		.short	2048
 770 002a 00400140 		.4byte	1073823744
 771 002e 000A     		.short	2560
ARM GAS  C:\Users\ujjjh\AppData\Local\Temp\ccwsSNUv.s 			page 24


 772 0030 004C0140 		.word	1073826816
 773 0034 0002     		.short	512
 774 0036 00500140 		.4byte	1073827840
 775 003a 2000     		.short	32
 776              		.text
 777              	.Letext0:
 778              		.file 2 "c:\\program files (x86)\\cypress\\psoc creator\\4.2\\psoc creator\\import\\gnu\\arm\\5.4.
 779              		.file 3 "Generated_Source\\PSoC5\\cytypes.h"
 780              		.file 4 "Generated_Source\\PSoC5\\CyLib.h"