ARM GAS  C:\Users\ujjjh\AppData\Local\Temp\cckY7D3M.s 			page 1


   1              		.syntax unified
   2              		.cpu cortex-m3
   3              		.fpu softvfp
   4              		.eabi_attribute 20, 1
   5              		.eabi_attribute 21, 1
   6              		.eabi_attribute 23, 3
   7              		.eabi_attribute 24, 1
   8              		.eabi_attribute 25, 1
   9              		.eabi_attribute 26, 1
  10              		.eabi_attribute 30, 1
  11              		.eabi_attribute 34, 1
  12              		.eabi_attribute 18, 4
  13              		.thumb
  14              		.syntax unified
  15              		.file	"isr_1.c"
  16              		.text
  17              	.Ltext0:
  18              		.cfi_sections	.debug_frame
  19              		.section	.text.isr_1_Interrupt,"ax",%progbits
  20              		.align	2
  21              		.global	isr_1_Interrupt
  22              		.thumb
  23              		.thumb_func
  24              		.type	isr_1_Interrupt, %function
  25              	isr_1_Interrupt:
  26              	.LFB3:
  27              		.file 1 "Generated_Source\\PSoC5\\isr_1.c"
   1:Generated_Source\PSoC5/isr_1.c **** /*******************************************************************************
   2:Generated_Source\PSoC5/isr_1.c **** * File Name: isr_1.c  
   3:Generated_Source\PSoC5/isr_1.c **** * Version 1.70
   4:Generated_Source\PSoC5/isr_1.c **** *
   5:Generated_Source\PSoC5/isr_1.c **** *  Description:
   6:Generated_Source\PSoC5/isr_1.c **** *   API for controlling the state of an interrupt.
   7:Generated_Source\PSoC5/isr_1.c **** *
   8:Generated_Source\PSoC5/isr_1.c **** *
   9:Generated_Source\PSoC5/isr_1.c **** *  Note:
  10:Generated_Source\PSoC5/isr_1.c **** *
  11:Generated_Source\PSoC5/isr_1.c **** ********************************************************************************
  12:Generated_Source\PSoC5/isr_1.c **** * Copyright 2008-2015, Cypress Semiconductor Corporation.  All rights reserved.
  13:Generated_Source\PSoC5/isr_1.c **** * You may use this file only in accordance with the license, terms, conditions, 
  14:Generated_Source\PSoC5/isr_1.c **** * disclaimers, and limitations in the end user license agreement accompanying 
  15:Generated_Source\PSoC5/isr_1.c **** * the software package with which this file was provided.
  16:Generated_Source\PSoC5/isr_1.c **** *******************************************************************************/
  17:Generated_Source\PSoC5/isr_1.c **** 
  18:Generated_Source\PSoC5/isr_1.c **** 
  19:Generated_Source\PSoC5/isr_1.c **** #include <cydevice_trm.h>
  20:Generated_Source\PSoC5/isr_1.c **** #include <CyLib.h>
  21:Generated_Source\PSoC5/isr_1.c **** #include <isr_1.h>
  22:Generated_Source\PSoC5/isr_1.c **** #include "cyapicallbacks.h"
  23:Generated_Source\PSoC5/isr_1.c **** 
  24:Generated_Source\PSoC5/isr_1.c **** #if !defined(isr_1__REMOVED) /* Check for removal by optimization */
  25:Generated_Source\PSoC5/isr_1.c **** 
  26:Generated_Source\PSoC5/isr_1.c **** /*******************************************************************************
  27:Generated_Source\PSoC5/isr_1.c **** *  Place your includes, defines and code here 
  28:Generated_Source\PSoC5/isr_1.c **** ********************************************************************************/
  29:Generated_Source\PSoC5/isr_1.c **** /* `#START isr_1_intc` */
  30:Generated_Source\PSoC5/isr_1.c ****     volatile int intr;
ARM GAS  C:\Users\ujjjh\AppData\Local\Temp\cckY7D3M.s 			page 2


  31:Generated_Source\PSoC5/isr_1.c **** /* `#END` */
  32:Generated_Source\PSoC5/isr_1.c **** 
  33:Generated_Source\PSoC5/isr_1.c **** #ifndef CYINT_IRQ_BASE
  34:Generated_Source\PSoC5/isr_1.c **** #define CYINT_IRQ_BASE      16
  35:Generated_Source\PSoC5/isr_1.c **** #endif /* CYINT_IRQ_BASE */
  36:Generated_Source\PSoC5/isr_1.c **** #ifndef CYINT_VECT_TABLE
  37:Generated_Source\PSoC5/isr_1.c **** #define CYINT_VECT_TABLE    ((cyisraddress **) CYREG_NVIC_VECT_OFFSET)
  38:Generated_Source\PSoC5/isr_1.c **** #endif /* CYINT_VECT_TABLE */
  39:Generated_Source\PSoC5/isr_1.c **** 
  40:Generated_Source\PSoC5/isr_1.c **** /* Declared in startup, used to set unused interrupts to. */
  41:Generated_Source\PSoC5/isr_1.c **** CY_ISR_PROTO(IntDefaultHandler);
  42:Generated_Source\PSoC5/isr_1.c **** 
  43:Generated_Source\PSoC5/isr_1.c **** 
  44:Generated_Source\PSoC5/isr_1.c **** /*******************************************************************************
  45:Generated_Source\PSoC5/isr_1.c **** * Function Name: isr_1_Start
  46:Generated_Source\PSoC5/isr_1.c **** ********************************************************************************
  47:Generated_Source\PSoC5/isr_1.c **** *
  48:Generated_Source\PSoC5/isr_1.c **** * Summary:
  49:Generated_Source\PSoC5/isr_1.c **** *  Set up the interrupt and enable it. This function disables the interrupt, 
  50:Generated_Source\PSoC5/isr_1.c **** *  sets the default interrupt vector, sets the priority from the value in the
  51:Generated_Source\PSoC5/isr_1.c **** *  Design Wide Resources Interrupt Editor, then enables the interrupt to the 
  52:Generated_Source\PSoC5/isr_1.c **** *  interrupt controller.
  53:Generated_Source\PSoC5/isr_1.c **** *
  54:Generated_Source\PSoC5/isr_1.c **** * Parameters:  
  55:Generated_Source\PSoC5/isr_1.c **** *   None
  56:Generated_Source\PSoC5/isr_1.c **** *
  57:Generated_Source\PSoC5/isr_1.c **** * Return:
  58:Generated_Source\PSoC5/isr_1.c **** *   None
  59:Generated_Source\PSoC5/isr_1.c **** *
  60:Generated_Source\PSoC5/isr_1.c **** *******************************************************************************/
  61:Generated_Source\PSoC5/isr_1.c **** void isr_1_Start(void)
  62:Generated_Source\PSoC5/isr_1.c **** {
  63:Generated_Source\PSoC5/isr_1.c ****     /* For all we know the interrupt is active. */
  64:Generated_Source\PSoC5/isr_1.c ****     isr_1_Disable();
  65:Generated_Source\PSoC5/isr_1.c **** 
  66:Generated_Source\PSoC5/isr_1.c ****     /* Set the ISR to point to the isr_1 Interrupt. */
  67:Generated_Source\PSoC5/isr_1.c ****     isr_1_SetVector(&isr_1_Interrupt);
  68:Generated_Source\PSoC5/isr_1.c **** 
  69:Generated_Source\PSoC5/isr_1.c ****     /* Set the priority. */
  70:Generated_Source\PSoC5/isr_1.c ****     isr_1_SetPriority((uint8)isr_1_INTC_PRIOR_NUMBER);
  71:Generated_Source\PSoC5/isr_1.c **** 
  72:Generated_Source\PSoC5/isr_1.c ****     /* Enable it. */
  73:Generated_Source\PSoC5/isr_1.c ****     isr_1_Enable();
  74:Generated_Source\PSoC5/isr_1.c **** }
  75:Generated_Source\PSoC5/isr_1.c **** 
  76:Generated_Source\PSoC5/isr_1.c **** 
  77:Generated_Source\PSoC5/isr_1.c **** /*******************************************************************************
  78:Generated_Source\PSoC5/isr_1.c **** * Function Name: isr_1_StartEx
  79:Generated_Source\PSoC5/isr_1.c **** ********************************************************************************
  80:Generated_Source\PSoC5/isr_1.c **** *
  81:Generated_Source\PSoC5/isr_1.c **** * Summary:
  82:Generated_Source\PSoC5/isr_1.c **** *  Sets up the interrupt and enables it. This function disables the interrupt,
  83:Generated_Source\PSoC5/isr_1.c **** *  sets the interrupt vector based on the address passed in, sets the priority 
  84:Generated_Source\PSoC5/isr_1.c **** *  from the value in the Design Wide Resources Interrupt Editor, then enables 
  85:Generated_Source\PSoC5/isr_1.c **** *  the interrupt to the interrupt controller.
  86:Generated_Source\PSoC5/isr_1.c **** *  
  87:Generated_Source\PSoC5/isr_1.c **** *  When defining ISR functions, the CY_ISR and CY_ISR_PROTO macros should be 
ARM GAS  C:\Users\ujjjh\AppData\Local\Temp\cckY7D3M.s 			page 3


  88:Generated_Source\PSoC5/isr_1.c **** *  used to provide consistent definition across compilers:
  89:Generated_Source\PSoC5/isr_1.c **** *  
  90:Generated_Source\PSoC5/isr_1.c **** *  Function definition example:
  91:Generated_Source\PSoC5/isr_1.c **** *   CY_ISR(MyISR)
  92:Generated_Source\PSoC5/isr_1.c **** *   {
  93:Generated_Source\PSoC5/isr_1.c **** *   }
  94:Generated_Source\PSoC5/isr_1.c **** *   Function prototype example:
  95:Generated_Source\PSoC5/isr_1.c **** *   CY_ISR_PROTO(MyISR);
  96:Generated_Source\PSoC5/isr_1.c **** *
  97:Generated_Source\PSoC5/isr_1.c **** * Parameters:  
  98:Generated_Source\PSoC5/isr_1.c **** *   address: Address of the ISR to set in the interrupt vector table.
  99:Generated_Source\PSoC5/isr_1.c **** *
 100:Generated_Source\PSoC5/isr_1.c **** * Return:
 101:Generated_Source\PSoC5/isr_1.c **** *   None
 102:Generated_Source\PSoC5/isr_1.c **** *
 103:Generated_Source\PSoC5/isr_1.c **** *******************************************************************************/
 104:Generated_Source\PSoC5/isr_1.c **** void isr_1_StartEx(cyisraddress address)
 105:Generated_Source\PSoC5/isr_1.c **** {
 106:Generated_Source\PSoC5/isr_1.c ****     /* For all we know the interrupt is active. */
 107:Generated_Source\PSoC5/isr_1.c ****     isr_1_Disable();
 108:Generated_Source\PSoC5/isr_1.c **** 
 109:Generated_Source\PSoC5/isr_1.c ****     /* Set the ISR to point to the isr_1 Interrupt. */
 110:Generated_Source\PSoC5/isr_1.c ****     isr_1_SetVector(address);
 111:Generated_Source\PSoC5/isr_1.c **** 
 112:Generated_Source\PSoC5/isr_1.c ****     /* Set the priority. */
 113:Generated_Source\PSoC5/isr_1.c ****     isr_1_SetPriority((uint8)isr_1_INTC_PRIOR_NUMBER);
 114:Generated_Source\PSoC5/isr_1.c **** 
 115:Generated_Source\PSoC5/isr_1.c ****     /* Enable it. */
 116:Generated_Source\PSoC5/isr_1.c ****     isr_1_Enable();
 117:Generated_Source\PSoC5/isr_1.c **** }
 118:Generated_Source\PSoC5/isr_1.c **** 
 119:Generated_Source\PSoC5/isr_1.c **** 
 120:Generated_Source\PSoC5/isr_1.c **** /*******************************************************************************
 121:Generated_Source\PSoC5/isr_1.c **** * Function Name: isr_1_Stop
 122:Generated_Source\PSoC5/isr_1.c **** ********************************************************************************
 123:Generated_Source\PSoC5/isr_1.c **** *
 124:Generated_Source\PSoC5/isr_1.c **** * Summary:
 125:Generated_Source\PSoC5/isr_1.c **** *   Disables and removes the interrupt.
 126:Generated_Source\PSoC5/isr_1.c **** *
 127:Generated_Source\PSoC5/isr_1.c **** * Parameters:  
 128:Generated_Source\PSoC5/isr_1.c **** *   None
 129:Generated_Source\PSoC5/isr_1.c **** *
 130:Generated_Source\PSoC5/isr_1.c **** * Return:
 131:Generated_Source\PSoC5/isr_1.c **** *   None
 132:Generated_Source\PSoC5/isr_1.c **** *
 133:Generated_Source\PSoC5/isr_1.c **** *******************************************************************************/
 134:Generated_Source\PSoC5/isr_1.c **** void isr_1_Stop(void)
 135:Generated_Source\PSoC5/isr_1.c **** {
 136:Generated_Source\PSoC5/isr_1.c ****     /* Disable this interrupt. */
 137:Generated_Source\PSoC5/isr_1.c ****     isr_1_Disable();
 138:Generated_Source\PSoC5/isr_1.c **** 
 139:Generated_Source\PSoC5/isr_1.c ****     /* Set the ISR to point to the passive one. */
 140:Generated_Source\PSoC5/isr_1.c ****     isr_1_SetVector(&IntDefaultHandler);
 141:Generated_Source\PSoC5/isr_1.c **** }
 142:Generated_Source\PSoC5/isr_1.c **** 
 143:Generated_Source\PSoC5/isr_1.c **** 
 144:Generated_Source\PSoC5/isr_1.c **** /*******************************************************************************
ARM GAS  C:\Users\ujjjh\AppData\Local\Temp\cckY7D3M.s 			page 4


 145:Generated_Source\PSoC5/isr_1.c **** * Function Name: isr_1_Interrupt
 146:Generated_Source\PSoC5/isr_1.c **** ********************************************************************************
 147:Generated_Source\PSoC5/isr_1.c **** *
 148:Generated_Source\PSoC5/isr_1.c **** * Summary:
 149:Generated_Source\PSoC5/isr_1.c **** *   The default Interrupt Service Routine for isr_1.
 150:Generated_Source\PSoC5/isr_1.c **** *
 151:Generated_Source\PSoC5/isr_1.c **** *   Add custom code between the coments to keep the next version of this file
 152:Generated_Source\PSoC5/isr_1.c **** *   from over writting your code.
 153:Generated_Source\PSoC5/isr_1.c **** *
 154:Generated_Source\PSoC5/isr_1.c **** * Parameters:  
 155:Generated_Source\PSoC5/isr_1.c **** *
 156:Generated_Source\PSoC5/isr_1.c **** * Return:
 157:Generated_Source\PSoC5/isr_1.c **** *   None
 158:Generated_Source\PSoC5/isr_1.c **** *
 159:Generated_Source\PSoC5/isr_1.c **** *******************************************************************************/
 160:Generated_Source\PSoC5/isr_1.c **** CY_ISR(isr_1_Interrupt)
 161:Generated_Source\PSoC5/isr_1.c **** {
  28              		.loc 1 161 0
  29              		.cfi_startproc
  30              		@ args = 0, pretend = 0, frame = 0
  31              		@ frame_needed = 0, uses_anonymous_args = 0
  32              		@ link register save eliminated.
 162:Generated_Source\PSoC5/isr_1.c ****     #ifdef isr_1_INTERRUPT_INTERRUPT_CALLBACK
 163:Generated_Source\PSoC5/isr_1.c ****         isr_1_Interrupt_InterruptCallback();
 164:Generated_Source\PSoC5/isr_1.c ****     #endif /* isr_1_INTERRUPT_INTERRUPT_CALLBACK */ 
 165:Generated_Source\PSoC5/isr_1.c **** 
 166:Generated_Source\PSoC5/isr_1.c ****     /*  Place your Interrupt code here. */
 167:Generated_Source\PSoC5/isr_1.c ****     /* `#START isr_1_Interrupt` */
 168:Generated_Source\PSoC5/isr_1.c ****         intr=1;
  33              		.loc 1 168 0
  34 0000 0122     		movs	r2, #1
  35 0002 014B     		ldr	r3, .L2
  36 0004 1A60     		str	r2, [r3]
  37 0006 7047     		bx	lr
  38              	.L3:
  39              		.align	2
  40              	.L2:
  41 0008 00000000 		.word	intr
  42              		.cfi_endproc
  43              	.LFE3:
  44              		.size	isr_1_Interrupt, .-isr_1_Interrupt
  45              		.section	.text.isr_1_SetVector,"ax",%progbits
  46              		.align	2
  47              		.global	isr_1_SetVector
  48              		.thumb
  49              		.thumb_func
  50              		.type	isr_1_SetVector, %function
  51              	isr_1_SetVector:
  52              	.LFB4:
 169:Generated_Source\PSoC5/isr_1.c ****     /* `#END` */
 170:Generated_Source\PSoC5/isr_1.c **** }
 171:Generated_Source\PSoC5/isr_1.c **** 
 172:Generated_Source\PSoC5/isr_1.c **** 
 173:Generated_Source\PSoC5/isr_1.c **** /*******************************************************************************
 174:Generated_Source\PSoC5/isr_1.c **** * Function Name: isr_1_SetVector
 175:Generated_Source\PSoC5/isr_1.c **** ********************************************************************************
 176:Generated_Source\PSoC5/isr_1.c **** *
ARM GAS  C:\Users\ujjjh\AppData\Local\Temp\cckY7D3M.s 			page 5


 177:Generated_Source\PSoC5/isr_1.c **** * Summary:
 178:Generated_Source\PSoC5/isr_1.c **** *   Change the ISR vector for the Interrupt. Note calling isr_1_Start
 179:Generated_Source\PSoC5/isr_1.c **** *   will override any effect this method would have had. To set the vector 
 180:Generated_Source\PSoC5/isr_1.c **** *   before the component has been started use isr_1_StartEx instead.
 181:Generated_Source\PSoC5/isr_1.c **** * 
 182:Generated_Source\PSoC5/isr_1.c **** *   When defining ISR functions, the CY_ISR and CY_ISR_PROTO macros should be 
 183:Generated_Source\PSoC5/isr_1.c **** *   used to provide consistent definition across compilers:
 184:Generated_Source\PSoC5/isr_1.c **** *
 185:Generated_Source\PSoC5/isr_1.c **** *   Function definition example:
 186:Generated_Source\PSoC5/isr_1.c **** *   CY_ISR(MyISR)
 187:Generated_Source\PSoC5/isr_1.c **** *   {
 188:Generated_Source\PSoC5/isr_1.c **** *   }
 189:Generated_Source\PSoC5/isr_1.c **** *
 190:Generated_Source\PSoC5/isr_1.c **** *   Function prototype example:
 191:Generated_Source\PSoC5/isr_1.c **** *     CY_ISR_PROTO(MyISR);
 192:Generated_Source\PSoC5/isr_1.c **** *
 193:Generated_Source\PSoC5/isr_1.c **** * Parameters:
 194:Generated_Source\PSoC5/isr_1.c **** *   address: Address of the ISR to set in the interrupt vector table.
 195:Generated_Source\PSoC5/isr_1.c **** *
 196:Generated_Source\PSoC5/isr_1.c **** * Return:
 197:Generated_Source\PSoC5/isr_1.c **** *   None
 198:Generated_Source\PSoC5/isr_1.c **** *
 199:Generated_Source\PSoC5/isr_1.c **** *******************************************************************************/
 200:Generated_Source\PSoC5/isr_1.c **** void isr_1_SetVector(cyisraddress address)
 201:Generated_Source\PSoC5/isr_1.c **** {
  53              		.loc 1 201 0
  54              		.cfi_startproc
  55              		@ args = 0, pretend = 0, frame = 0
  56              		@ frame_needed = 0, uses_anonymous_args = 0
  57              		@ link register save eliminated.
  58              	.LVL0:
 202:Generated_Source\PSoC5/isr_1.c ****     cyisraddress * ramVectorTable;
 203:Generated_Source\PSoC5/isr_1.c **** 
 204:Generated_Source\PSoC5/isr_1.c ****     ramVectorTable = (cyisraddress *) *CYINT_VECT_TABLE;
  59              		.loc 1 204 0
  60 0000 014B     		ldr	r3, .L5
  61 0002 1B68     		ldr	r3, [r3]
  62              	.LVL1:
 205:Generated_Source\PSoC5/isr_1.c **** 
 206:Generated_Source\PSoC5/isr_1.c ****     ramVectorTable[CYINT_IRQ_BASE + (uint32)isr_1__INTC_NUMBER] = address;
  63              		.loc 1 206 0
  64 0004 9864     		str	r0, [r3, #72]
  65 0006 7047     		bx	lr
  66              	.L6:
  67              		.align	2
  68              	.L5:
  69 0008 08ED00E0 		.word	-536810232
  70              		.cfi_endproc
  71              	.LFE4:
  72              		.size	isr_1_SetVector, .-isr_1_SetVector
  73              		.section	.text.isr_1_GetVector,"ax",%progbits
  74              		.align	2
  75              		.global	isr_1_GetVector
  76              		.thumb
  77              		.thumb_func
  78              		.type	isr_1_GetVector, %function
  79              	isr_1_GetVector:
ARM GAS  C:\Users\ujjjh\AppData\Local\Temp\cckY7D3M.s 			page 6


  80              	.LFB5:
 207:Generated_Source\PSoC5/isr_1.c **** }
 208:Generated_Source\PSoC5/isr_1.c **** 
 209:Generated_Source\PSoC5/isr_1.c **** 
 210:Generated_Source\PSoC5/isr_1.c **** /*******************************************************************************
 211:Generated_Source\PSoC5/isr_1.c **** * Function Name: isr_1_GetVector
 212:Generated_Source\PSoC5/isr_1.c **** ********************************************************************************
 213:Generated_Source\PSoC5/isr_1.c **** *
 214:Generated_Source\PSoC5/isr_1.c **** * Summary:
 215:Generated_Source\PSoC5/isr_1.c **** *   Gets the "address" of the current ISR vector for the Interrupt.
 216:Generated_Source\PSoC5/isr_1.c **** *
 217:Generated_Source\PSoC5/isr_1.c **** * Parameters:
 218:Generated_Source\PSoC5/isr_1.c **** *   None
 219:Generated_Source\PSoC5/isr_1.c **** *
 220:Generated_Source\PSoC5/isr_1.c **** * Return:
 221:Generated_Source\PSoC5/isr_1.c **** *   Address of the ISR in the interrupt vector table.
 222:Generated_Source\PSoC5/isr_1.c **** *
 223:Generated_Source\PSoC5/isr_1.c **** *******************************************************************************/
 224:Generated_Source\PSoC5/isr_1.c **** cyisraddress isr_1_GetVector(void)
 225:Generated_Source\PSoC5/isr_1.c **** {
  81              		.loc 1 225 0
  82              		.cfi_startproc
  83              		@ args = 0, pretend = 0, frame = 0
  84              		@ frame_needed = 0, uses_anonymous_args = 0
  85              		@ link register save eliminated.
 226:Generated_Source\PSoC5/isr_1.c ****     cyisraddress * ramVectorTable;
 227:Generated_Source\PSoC5/isr_1.c **** 
 228:Generated_Source\PSoC5/isr_1.c ****     ramVectorTable = (cyisraddress *) *CYINT_VECT_TABLE;
  86              		.loc 1 228 0
  87 0000 014B     		ldr	r3, .L8
  88 0002 1B68     		ldr	r3, [r3]
  89              	.LVL2:
 229:Generated_Source\PSoC5/isr_1.c **** 
 230:Generated_Source\PSoC5/isr_1.c ****     return ramVectorTable[CYINT_IRQ_BASE + (uint32)isr_1__INTC_NUMBER];
 231:Generated_Source\PSoC5/isr_1.c **** }
  90              		.loc 1 231 0
  91 0004 986C     		ldr	r0, [r3, #72]
  92 0006 7047     		bx	lr
  93              	.L9:
  94              		.align	2
  95              	.L8:
  96 0008 08ED00E0 		.word	-536810232
  97              		.cfi_endproc
  98              	.LFE5:
  99              		.size	isr_1_GetVector, .-isr_1_GetVector
 100              		.section	.text.isr_1_SetPriority,"ax",%progbits
 101              		.align	2
 102              		.global	isr_1_SetPriority
 103              		.thumb
 104              		.thumb_func
 105              		.type	isr_1_SetPriority, %function
 106              	isr_1_SetPriority:
 107              	.LFB6:
 232:Generated_Source\PSoC5/isr_1.c **** 
 233:Generated_Source\PSoC5/isr_1.c **** 
 234:Generated_Source\PSoC5/isr_1.c **** /*******************************************************************************
 235:Generated_Source\PSoC5/isr_1.c **** * Function Name: isr_1_SetPriority
ARM GAS  C:\Users\ujjjh\AppData\Local\Temp\cckY7D3M.s 			page 7


 236:Generated_Source\PSoC5/isr_1.c **** ********************************************************************************
 237:Generated_Source\PSoC5/isr_1.c **** *
 238:Generated_Source\PSoC5/isr_1.c **** * Summary:
 239:Generated_Source\PSoC5/isr_1.c **** *   Sets the Priority of the Interrupt. 
 240:Generated_Source\PSoC5/isr_1.c **** *
 241:Generated_Source\PSoC5/isr_1.c **** *   Note calling isr_1_Start or isr_1_StartEx will 
 242:Generated_Source\PSoC5/isr_1.c **** *   override any effect this API would have had. This API should only be called
 243:Generated_Source\PSoC5/isr_1.c **** *   after isr_1_Start or isr_1_StartEx has been called. 
 244:Generated_Source\PSoC5/isr_1.c **** *   To set the initial priority for the component, use the Design-Wide Resources
 245:Generated_Source\PSoC5/isr_1.c **** *   Interrupt Editor.
 246:Generated_Source\PSoC5/isr_1.c **** *
 247:Generated_Source\PSoC5/isr_1.c **** *   Note This API has no effect on Non-maskable interrupt NMI).
 248:Generated_Source\PSoC5/isr_1.c **** *
 249:Generated_Source\PSoC5/isr_1.c **** * Parameters:
 250:Generated_Source\PSoC5/isr_1.c **** *   priority: Priority of the interrupt, 0 being the highest priority
 251:Generated_Source\PSoC5/isr_1.c **** *             PSoC 3 and PSoC 5LP: Priority is from 0 to 7.
 252:Generated_Source\PSoC5/isr_1.c **** *             PSoC 4: Priority is from 0 to 3.
 253:Generated_Source\PSoC5/isr_1.c **** *
 254:Generated_Source\PSoC5/isr_1.c **** * Return:
 255:Generated_Source\PSoC5/isr_1.c **** *   None
 256:Generated_Source\PSoC5/isr_1.c **** *
 257:Generated_Source\PSoC5/isr_1.c **** *******************************************************************************/
 258:Generated_Source\PSoC5/isr_1.c **** void isr_1_SetPriority(uint8 priority)
 259:Generated_Source\PSoC5/isr_1.c **** {
 108              		.loc 1 259 0
 109              		.cfi_startproc
 110              		@ args = 0, pretend = 0, frame = 0
 111              		@ frame_needed = 0, uses_anonymous_args = 0
 112              		@ link register save eliminated.
 113              	.LVL3:
 260:Generated_Source\PSoC5/isr_1.c ****     *isr_1_INTC_PRIOR = priority << 5;
 114              		.loc 1 260 0
 115 0000 4001     		lsls	r0, r0, #5
 116              	.LVL4:
 117 0002 C0B2     		uxtb	r0, r0
 118 0004 014B     		ldr	r3, .L11
 119 0006 1870     		strb	r0, [r3]
 120 0008 7047     		bx	lr
 121              	.L12:
 122 000a 00BF     		.align	2
 123              	.L11:
 124 000c 02E400E0 		.word	-536812542
 125              		.cfi_endproc
 126              	.LFE6:
 127              		.size	isr_1_SetPriority, .-isr_1_SetPriority
 128              		.section	.text.isr_1_GetPriority,"ax",%progbits
 129              		.align	2
 130              		.global	isr_1_GetPriority
 131              		.thumb
 132              		.thumb_func
 133              		.type	isr_1_GetPriority, %function
 134              	isr_1_GetPriority:
 135              	.LFB7:
 261:Generated_Source\PSoC5/isr_1.c **** }
 262:Generated_Source\PSoC5/isr_1.c **** 
 263:Generated_Source\PSoC5/isr_1.c **** 
 264:Generated_Source\PSoC5/isr_1.c **** /*******************************************************************************
ARM GAS  C:\Users\ujjjh\AppData\Local\Temp\cckY7D3M.s 			page 8


 265:Generated_Source\PSoC5/isr_1.c **** * Function Name: isr_1_GetPriority
 266:Generated_Source\PSoC5/isr_1.c **** ********************************************************************************
 267:Generated_Source\PSoC5/isr_1.c **** *
 268:Generated_Source\PSoC5/isr_1.c **** * Summary:
 269:Generated_Source\PSoC5/isr_1.c **** *   Gets the Priority of the Interrupt.
 270:Generated_Source\PSoC5/isr_1.c **** *
 271:Generated_Source\PSoC5/isr_1.c **** * Parameters:
 272:Generated_Source\PSoC5/isr_1.c **** *   None
 273:Generated_Source\PSoC5/isr_1.c **** *
 274:Generated_Source\PSoC5/isr_1.c **** * Return:
 275:Generated_Source\PSoC5/isr_1.c **** *   Priority of the interrupt, 0 being the highest priority
 276:Generated_Source\PSoC5/isr_1.c **** *    PSoC 3 and PSoC 5LP: Priority is from 0 to 7.
 277:Generated_Source\PSoC5/isr_1.c **** *    PSoC 4: Priority is from 0 to 3.
 278:Generated_Source\PSoC5/isr_1.c **** *
 279:Generated_Source\PSoC5/isr_1.c **** *******************************************************************************/
 280:Generated_Source\PSoC5/isr_1.c **** uint8 isr_1_GetPriority(void)
 281:Generated_Source\PSoC5/isr_1.c **** {
 136              		.loc 1 281 0
 137              		.cfi_startproc
 138              		@ args = 0, pretend = 0, frame = 0
 139              		@ frame_needed = 0, uses_anonymous_args = 0
 140              		@ link register save eliminated.
 282:Generated_Source\PSoC5/isr_1.c ****     uint8 priority;
 283:Generated_Source\PSoC5/isr_1.c **** 
 284:Generated_Source\PSoC5/isr_1.c **** 
 285:Generated_Source\PSoC5/isr_1.c ****     priority = *isr_1_INTC_PRIOR >> 5;
 141              		.loc 1 285 0
 142 0000 014B     		ldr	r3, .L14
 143 0002 1878     		ldrb	r0, [r3]	@ zero_extendqisi2
 144              	.LVL5:
 286:Generated_Source\PSoC5/isr_1.c **** 
 287:Generated_Source\PSoC5/isr_1.c ****     return priority;
 288:Generated_Source\PSoC5/isr_1.c **** }
 145              		.loc 1 288 0
 146 0004 4009     		lsrs	r0, r0, #5
 147              	.LVL6:
 148 0006 7047     		bx	lr
 149              	.L15:
 150              		.align	2
 151              	.L14:
 152 0008 02E400E0 		.word	-536812542
 153              		.cfi_endproc
 154              	.LFE7:
 155              		.size	isr_1_GetPriority, .-isr_1_GetPriority
 156              		.section	.text.isr_1_Enable,"ax",%progbits
 157              		.align	2
 158              		.global	isr_1_Enable
 159              		.thumb
 160              		.thumb_func
 161              		.type	isr_1_Enable, %function
 162              	isr_1_Enable:
 163              	.LFB8:
 289:Generated_Source\PSoC5/isr_1.c **** 
 290:Generated_Source\PSoC5/isr_1.c **** 
 291:Generated_Source\PSoC5/isr_1.c **** /*******************************************************************************
 292:Generated_Source\PSoC5/isr_1.c **** * Function Name: isr_1_Enable
 293:Generated_Source\PSoC5/isr_1.c **** ********************************************************************************
ARM GAS  C:\Users\ujjjh\AppData\Local\Temp\cckY7D3M.s 			page 9


 294:Generated_Source\PSoC5/isr_1.c **** *
 295:Generated_Source\PSoC5/isr_1.c **** * Summary:
 296:Generated_Source\PSoC5/isr_1.c **** *   Enables the interrupt to the interrupt controller. Do not call this function
 297:Generated_Source\PSoC5/isr_1.c **** *   unless ISR_Start() has been called or the functionality of the ISR_Start() 
 298:Generated_Source\PSoC5/isr_1.c **** *   function, which sets the vector and the priority, has been called.
 299:Generated_Source\PSoC5/isr_1.c **** *
 300:Generated_Source\PSoC5/isr_1.c **** * Parameters:
 301:Generated_Source\PSoC5/isr_1.c **** *   None
 302:Generated_Source\PSoC5/isr_1.c **** *
 303:Generated_Source\PSoC5/isr_1.c **** * Return:
 304:Generated_Source\PSoC5/isr_1.c **** *   None
 305:Generated_Source\PSoC5/isr_1.c **** *
 306:Generated_Source\PSoC5/isr_1.c **** *******************************************************************************/
 307:Generated_Source\PSoC5/isr_1.c **** void isr_1_Enable(void)
 308:Generated_Source\PSoC5/isr_1.c **** {
 164              		.loc 1 308 0
 165              		.cfi_startproc
 166              		@ args = 0, pretend = 0, frame = 0
 167              		@ frame_needed = 0, uses_anonymous_args = 0
 168              		@ link register save eliminated.
 309:Generated_Source\PSoC5/isr_1.c ****     /* Enable the general interrupt. */
 310:Generated_Source\PSoC5/isr_1.c ****     *isr_1_INTC_SET_EN = isr_1__INTC_MASK;
 169              		.loc 1 310 0
 170 0000 0422     		movs	r2, #4
 171 0002 014B     		ldr	r3, .L17
 172 0004 1A60     		str	r2, [r3]
 173 0006 7047     		bx	lr
 174              	.L18:
 175              		.align	2
 176              	.L17:
 177 0008 00E100E0 		.word	-536813312
 178              		.cfi_endproc
 179              	.LFE8:
 180              		.size	isr_1_Enable, .-isr_1_Enable
 181              		.section	.text.isr_1_GetState,"ax",%progbits
 182              		.align	2
 183              		.global	isr_1_GetState
 184              		.thumb
 185              		.thumb_func
 186              		.type	isr_1_GetState, %function
 187              	isr_1_GetState:
 188              	.LFB9:
 311:Generated_Source\PSoC5/isr_1.c **** }
 312:Generated_Source\PSoC5/isr_1.c **** 
 313:Generated_Source\PSoC5/isr_1.c **** 
 314:Generated_Source\PSoC5/isr_1.c **** /*******************************************************************************
 315:Generated_Source\PSoC5/isr_1.c **** * Function Name: isr_1_GetState
 316:Generated_Source\PSoC5/isr_1.c **** ********************************************************************************
 317:Generated_Source\PSoC5/isr_1.c **** *
 318:Generated_Source\PSoC5/isr_1.c **** * Summary:
 319:Generated_Source\PSoC5/isr_1.c **** *   Gets the state (enabled, disabled) of the Interrupt.
 320:Generated_Source\PSoC5/isr_1.c **** *
 321:Generated_Source\PSoC5/isr_1.c **** * Parameters:
 322:Generated_Source\PSoC5/isr_1.c **** *   None
 323:Generated_Source\PSoC5/isr_1.c **** *
 324:Generated_Source\PSoC5/isr_1.c **** * Return:
 325:Generated_Source\PSoC5/isr_1.c **** *   1 if enabled, 0 if disabled.
ARM GAS  C:\Users\ujjjh\AppData\Local\Temp\cckY7D3M.s 			page 10


 326:Generated_Source\PSoC5/isr_1.c **** *
 327:Generated_Source\PSoC5/isr_1.c **** *******************************************************************************/
 328:Generated_Source\PSoC5/isr_1.c **** uint8 isr_1_GetState(void)
 329:Generated_Source\PSoC5/isr_1.c **** {
 189              		.loc 1 329 0
 190              		.cfi_startproc
 191              		@ args = 0, pretend = 0, frame = 0
 192              		@ frame_needed = 0, uses_anonymous_args = 0
 193              		@ link register save eliminated.
 330:Generated_Source\PSoC5/isr_1.c ****     /* Get the state of the general interrupt. */
 331:Generated_Source\PSoC5/isr_1.c ****     return ((*isr_1_INTC_SET_EN & (uint32)isr_1__INTC_MASK) != 0u) ? 1u:0u;
 194              		.loc 1 331 0
 195 0000 044B     		ldr	r3, .L22
 196 0002 1B68     		ldr	r3, [r3]
 197 0004 13F0040F 		tst	r3, #4
 198 0008 01D0     		beq	.L21
 199 000a 0120     		movs	r0, #1
 200 000c 7047     		bx	lr
 201              	.L21:
 202 000e 0020     		movs	r0, #0
 332:Generated_Source\PSoC5/isr_1.c **** }
 203              		.loc 1 332 0
 204 0010 7047     		bx	lr
 205              	.L23:
 206 0012 00BF     		.align	2
 207              	.L22:
 208 0014 00E100E0 		.word	-536813312
 209              		.cfi_endproc
 210              	.LFE9:
 211              		.size	isr_1_GetState, .-isr_1_GetState
 212              		.section	.text.isr_1_Disable,"ax",%progbits
 213              		.align	2
 214              		.global	isr_1_Disable
 215              		.thumb
 216              		.thumb_func
 217              		.type	isr_1_Disable, %function
 218              	isr_1_Disable:
 219              	.LFB10:
 333:Generated_Source\PSoC5/isr_1.c **** 
 334:Generated_Source\PSoC5/isr_1.c **** 
 335:Generated_Source\PSoC5/isr_1.c **** /*******************************************************************************
 336:Generated_Source\PSoC5/isr_1.c **** * Function Name: isr_1_Disable
 337:Generated_Source\PSoC5/isr_1.c **** ********************************************************************************
 338:Generated_Source\PSoC5/isr_1.c **** *
 339:Generated_Source\PSoC5/isr_1.c **** * Summary:
 340:Generated_Source\PSoC5/isr_1.c **** *   Disables the Interrupt in the interrupt controller.
 341:Generated_Source\PSoC5/isr_1.c **** *
 342:Generated_Source\PSoC5/isr_1.c **** * Parameters:
 343:Generated_Source\PSoC5/isr_1.c **** *   None
 344:Generated_Source\PSoC5/isr_1.c **** *
 345:Generated_Source\PSoC5/isr_1.c **** * Return:
 346:Generated_Source\PSoC5/isr_1.c **** *   None
 347:Generated_Source\PSoC5/isr_1.c **** *
 348:Generated_Source\PSoC5/isr_1.c **** *******************************************************************************/
 349:Generated_Source\PSoC5/isr_1.c **** void isr_1_Disable(void)
 350:Generated_Source\PSoC5/isr_1.c **** {
 220              		.loc 1 350 0
ARM GAS  C:\Users\ujjjh\AppData\Local\Temp\cckY7D3M.s 			page 11


 221              		.cfi_startproc
 222              		@ args = 0, pretend = 0, frame = 0
 223              		@ frame_needed = 0, uses_anonymous_args = 0
 224              		@ link register save eliminated.
 351:Generated_Source\PSoC5/isr_1.c ****     /* Disable the general interrupt. */
 352:Generated_Source\PSoC5/isr_1.c ****     *isr_1_INTC_CLR_EN = isr_1__INTC_MASK;
 225              		.loc 1 352 0
 226 0000 0422     		movs	r2, #4
 227 0002 014B     		ldr	r3, .L25
 228 0004 1A60     		str	r2, [r3]
 229 0006 7047     		bx	lr
 230              	.L26:
 231              		.align	2
 232              	.L25:
 233 0008 80E100E0 		.word	-536813184
 234              		.cfi_endproc
 235              	.LFE10:
 236              		.size	isr_1_Disable, .-isr_1_Disable
 237              		.section	.text.isr_1_Start,"ax",%progbits
 238              		.align	2
 239              		.global	isr_1_Start
 240              		.thumb
 241              		.thumb_func
 242              		.type	isr_1_Start, %function
 243              	isr_1_Start:
 244              	.LFB0:
  62:Generated_Source\PSoC5/isr_1.c ****     /* For all we know the interrupt is active. */
 245              		.loc 1 62 0
 246              		.cfi_startproc
 247              		@ args = 0, pretend = 0, frame = 0
 248              		@ frame_needed = 0, uses_anonymous_args = 0
 249 0000 08B5     		push	{r3, lr}
 250              		.cfi_def_cfa_offset 8
 251              		.cfi_offset 3, -8
 252              		.cfi_offset 14, -4
  64:Generated_Source\PSoC5/isr_1.c **** 
 253              		.loc 1 64 0
 254 0002 FFF7FEFF 		bl	isr_1_Disable
 255              	.LVL7:
  67:Generated_Source\PSoC5/isr_1.c **** 
 256              		.loc 1 67 0
 257 0006 0448     		ldr	r0, .L29
 258 0008 FFF7FEFF 		bl	isr_1_SetVector
 259              	.LVL8:
  70:Generated_Source\PSoC5/isr_1.c **** 
 260              		.loc 1 70 0
 261 000c 0720     		movs	r0, #7
 262 000e FFF7FEFF 		bl	isr_1_SetPriority
 263              	.LVL9:
  73:Generated_Source\PSoC5/isr_1.c **** }
 264              		.loc 1 73 0
 265 0012 FFF7FEFF 		bl	isr_1_Enable
 266              	.LVL10:
 267 0016 08BD     		pop	{r3, pc}
 268              	.L30:
 269              		.align	2
 270              	.L29:
ARM GAS  C:\Users\ujjjh\AppData\Local\Temp\cckY7D3M.s 			page 12


 271 0018 00000000 		.word	isr_1_Interrupt
 272              		.cfi_endproc
 273              	.LFE0:
 274              		.size	isr_1_Start, .-isr_1_Start
 275              		.section	.text.isr_1_StartEx,"ax",%progbits
 276              		.align	2
 277              		.global	isr_1_StartEx
 278              		.thumb
 279              		.thumb_func
 280              		.type	isr_1_StartEx, %function
 281              	isr_1_StartEx:
 282              	.LFB1:
 105:Generated_Source\PSoC5/isr_1.c ****     /* For all we know the interrupt is active. */
 283              		.loc 1 105 0
 284              		.cfi_startproc
 285              		@ args = 0, pretend = 0, frame = 0
 286              		@ frame_needed = 0, uses_anonymous_args = 0
 287              	.LVL11:
 288 0000 10B5     		push	{r4, lr}
 289              		.cfi_def_cfa_offset 8
 290              		.cfi_offset 4, -8
 291              		.cfi_offset 14, -4
 292 0002 0446     		mov	r4, r0
 107:Generated_Source\PSoC5/isr_1.c **** 
 293              		.loc 1 107 0
 294 0004 FFF7FEFF 		bl	isr_1_Disable
 295              	.LVL12:
 110:Generated_Source\PSoC5/isr_1.c **** 
 296              		.loc 1 110 0
 297 0008 2046     		mov	r0, r4
 298 000a FFF7FEFF 		bl	isr_1_SetVector
 299              	.LVL13:
 113:Generated_Source\PSoC5/isr_1.c **** 
 300              		.loc 1 113 0
 301 000e 0720     		movs	r0, #7
 302 0010 FFF7FEFF 		bl	isr_1_SetPriority
 303              	.LVL14:
 116:Generated_Source\PSoC5/isr_1.c **** }
 304              		.loc 1 116 0
 305 0014 FFF7FEFF 		bl	isr_1_Enable
 306              	.LVL15:
 307 0018 10BD     		pop	{r4, pc}
 308              		.cfi_endproc
 309              	.LFE1:
 310              		.size	isr_1_StartEx, .-isr_1_StartEx
 311 001a 00BF     		.section	.text.isr_1_Stop,"ax",%progbits
 312              		.align	2
 313              		.global	isr_1_Stop
 314              		.thumb
 315              		.thumb_func
 316              		.type	isr_1_Stop, %function
 317              	isr_1_Stop:
 318              	.LFB2:
 135:Generated_Source\PSoC5/isr_1.c ****     /* Disable this interrupt. */
 319              		.loc 1 135 0
 320              		.cfi_startproc
 321              		@ args = 0, pretend = 0, frame = 0
ARM GAS  C:\Users\ujjjh\AppData\Local\Temp\cckY7D3M.s 			page 13


 322              		@ frame_needed = 0, uses_anonymous_args = 0
 323 0000 08B5     		push	{r3, lr}
 324              		.cfi_def_cfa_offset 8
 325              		.cfi_offset 3, -8
 326              		.cfi_offset 14, -4
 137:Generated_Source\PSoC5/isr_1.c **** 
 327              		.loc 1 137 0
 328 0002 FFF7FEFF 		bl	isr_1_Disable
 329              	.LVL16:
 140:Generated_Source\PSoC5/isr_1.c **** }
 330              		.loc 1 140 0
 331 0006 0248     		ldr	r0, .L35
 332 0008 FFF7FEFF 		bl	isr_1_SetVector
 333              	.LVL17:
 334 000c 08BD     		pop	{r3, pc}
 335              	.L36:
 336 000e 00BF     		.align	2
 337              	.L35:
 338 0010 00000000 		.word	IntDefaultHandler
 339              		.cfi_endproc
 340              	.LFE2:
 341              		.size	isr_1_Stop, .-isr_1_Stop
 342              		.section	.text.isr_1_SetPending,"ax",%progbits
 343              		.align	2
 344              		.global	isr_1_SetPending
 345              		.thumb
 346              		.thumb_func
 347              		.type	isr_1_SetPending, %function
 348              	isr_1_SetPending:
 349              	.LFB11:
 353:Generated_Source\PSoC5/isr_1.c **** }
 354:Generated_Source\PSoC5/isr_1.c **** 
 355:Generated_Source\PSoC5/isr_1.c **** 
 356:Generated_Source\PSoC5/isr_1.c **** /*******************************************************************************
 357:Generated_Source\PSoC5/isr_1.c **** * Function Name: isr_1_SetPending
 358:Generated_Source\PSoC5/isr_1.c **** ********************************************************************************
 359:Generated_Source\PSoC5/isr_1.c **** *
 360:Generated_Source\PSoC5/isr_1.c **** * Summary:
 361:Generated_Source\PSoC5/isr_1.c **** *   Causes the Interrupt to enter the pending state, a software method of
 362:Generated_Source\PSoC5/isr_1.c **** *   generating the interrupt.
 363:Generated_Source\PSoC5/isr_1.c **** *
 364:Generated_Source\PSoC5/isr_1.c **** * Parameters:
 365:Generated_Source\PSoC5/isr_1.c **** *   None
 366:Generated_Source\PSoC5/isr_1.c **** *
 367:Generated_Source\PSoC5/isr_1.c **** * Return:
 368:Generated_Source\PSoC5/isr_1.c **** *   None
 369:Generated_Source\PSoC5/isr_1.c **** *
 370:Generated_Source\PSoC5/isr_1.c **** * Side Effects:
 371:Generated_Source\PSoC5/isr_1.c **** *   If interrupts are enabled and the interrupt is set up properly, the ISR is
 372:Generated_Source\PSoC5/isr_1.c **** *   entered (depending on the priority of this interrupt and other pending 
 373:Generated_Source\PSoC5/isr_1.c **** *   interrupts).
 374:Generated_Source\PSoC5/isr_1.c **** *
 375:Generated_Source\PSoC5/isr_1.c **** *******************************************************************************/
 376:Generated_Source\PSoC5/isr_1.c **** void isr_1_SetPending(void)
 377:Generated_Source\PSoC5/isr_1.c **** {
 350              		.loc 1 377 0
 351              		.cfi_startproc
ARM GAS  C:\Users\ujjjh\AppData\Local\Temp\cckY7D3M.s 			page 14


 352              		@ args = 0, pretend = 0, frame = 0
 353              		@ frame_needed = 0, uses_anonymous_args = 0
 354              		@ link register save eliminated.
 378:Generated_Source\PSoC5/isr_1.c ****     *isr_1_INTC_SET_PD = isr_1__INTC_MASK;
 355              		.loc 1 378 0
 356 0000 0422     		movs	r2, #4
 357 0002 014B     		ldr	r3, .L38
 358 0004 1A60     		str	r2, [r3]
 359 0006 7047     		bx	lr
 360              	.L39:
 361              		.align	2
 362              	.L38:
 363 0008 00E200E0 		.word	-536813056
 364              		.cfi_endproc
 365              	.LFE11:
 366              		.size	isr_1_SetPending, .-isr_1_SetPending
 367              		.section	.text.isr_1_ClearPending,"ax",%progbits
 368              		.align	2
 369              		.global	isr_1_ClearPending
 370              		.thumb
 371              		.thumb_func
 372              		.type	isr_1_ClearPending, %function
 373              	isr_1_ClearPending:
 374              	.LFB12:
 379:Generated_Source\PSoC5/isr_1.c **** }
 380:Generated_Source\PSoC5/isr_1.c **** 
 381:Generated_Source\PSoC5/isr_1.c **** 
 382:Generated_Source\PSoC5/isr_1.c **** /*******************************************************************************
 383:Generated_Source\PSoC5/isr_1.c **** * Function Name: isr_1_ClearPending
 384:Generated_Source\PSoC5/isr_1.c **** ********************************************************************************
 385:Generated_Source\PSoC5/isr_1.c **** *
 386:Generated_Source\PSoC5/isr_1.c **** * Summary:
 387:Generated_Source\PSoC5/isr_1.c **** *   Clears a pending interrupt in the interrupt controller.
 388:Generated_Source\PSoC5/isr_1.c **** *
 389:Generated_Source\PSoC5/isr_1.c **** *   Note Some interrupt sources are clear-on-read and require the block 
 390:Generated_Source\PSoC5/isr_1.c **** *   interrupt/status register to be read/cleared with the appropriate block API 
 391:Generated_Source\PSoC5/isr_1.c **** *   (GPIO, UART, and so on). Otherwise the ISR will continue to remain in 
 392:Generated_Source\PSoC5/isr_1.c **** *   pending state even though the interrupt itself is cleared using this API.
 393:Generated_Source\PSoC5/isr_1.c **** *
 394:Generated_Source\PSoC5/isr_1.c **** * Parameters:
 395:Generated_Source\PSoC5/isr_1.c **** *   None
 396:Generated_Source\PSoC5/isr_1.c **** *
 397:Generated_Source\PSoC5/isr_1.c **** * Return:
 398:Generated_Source\PSoC5/isr_1.c **** *   None
 399:Generated_Source\PSoC5/isr_1.c **** *
 400:Generated_Source\PSoC5/isr_1.c **** *******************************************************************************/
 401:Generated_Source\PSoC5/isr_1.c **** void isr_1_ClearPending(void)
 402:Generated_Source\PSoC5/isr_1.c **** {
 375              		.loc 1 402 0
 376              		.cfi_startproc
 377              		@ args = 0, pretend = 0, frame = 0
 378              		@ frame_needed = 0, uses_anonymous_args = 0
 379              		@ link register save eliminated.
 403:Generated_Source\PSoC5/isr_1.c ****     *isr_1_INTC_CLR_PD = isr_1__INTC_MASK;
 380              		.loc 1 403 0
 381 0000 0422     		movs	r2, #4
 382 0002 014B     		ldr	r3, .L41
ARM GAS  C:\Users\ujjjh\AppData\Local\Temp\cckY7D3M.s 			page 15


 383 0004 1A60     		str	r2, [r3]
 384 0006 7047     		bx	lr
 385              	.L42:
 386              		.align	2
 387              	.L41:
 388 0008 80E200E0 		.word	-536812928
 389              		.cfi_endproc
 390              	.LFE12:
 391              		.size	isr_1_ClearPending, .-isr_1_ClearPending
 392              		.comm	intr,4,4
 393              		.text
 394              	.Letext0:
 395              		.file 2 "Generated_Source\\PSoC5/cytypes.h"