ARM GAS  C:\Users\ujjjh\AppData\Local\Temp\ccTQTOKf.s 			page 1


   1              		.syntax unified
   2              		.cpu cortex-m3
   3              		.fpu softvfp
   4              		.eabi_attribute 20, 1
   5              		.eabi_attribute 21, 1
   6              		.eabi_attribute 23, 3
   7              		.eabi_attribute 24, 1
   8              		.eabi_attribute 25, 1
   9              		.eabi_attribute 26, 1
  10              		.eabi_attribute 30, 1
  11              		.eabi_attribute 34, 1
  12              		.eabi_attribute 18, 4
  13              		.thumb
  14              		.syntax unified
  15              		.file	"cyfitter_cfg.c"
  16              		.text
  17              	.Ltext0:
  18              		.cfi_sections	.debug_frame
  19              		.section	.text.CyClockStartupError,"ax",%progbits
  20              		.align	2
  21              		.thumb
  22              		.thumb_func
  23              		.type	CyClockStartupError, %function
  24              	CyClockStartupError:
  25              	.LFB3:
  26              		.file 1 "Generated_Source\\PSoC5\\cyfitter_cfg.c"
   1:Generated_Source\PSoC5/cyfitter_cfg.c **** 
   2:Generated_Source\PSoC5/cyfitter_cfg.c **** /*******************************************************************************
   3:Generated_Source\PSoC5/cyfitter_cfg.c **** * File Name: cyfitter_cfg.c
   4:Generated_Source\PSoC5/cyfitter_cfg.c **** * 
   5:Generated_Source\PSoC5/cyfitter_cfg.c **** * PSoC Creator  4.2
   6:Generated_Source\PSoC5/cyfitter_cfg.c **** *
   7:Generated_Source\PSoC5/cyfitter_cfg.c **** * Description:
   8:Generated_Source\PSoC5/cyfitter_cfg.c **** * This file contains device initialization code.
   9:Generated_Source\PSoC5/cyfitter_cfg.c **** * Except for the user defined sections in CyClockStartupError(), this file should not be modified.
  10:Generated_Source\PSoC5/cyfitter_cfg.c **** * This file is automatically generated by PSoC Creator.
  11:Generated_Source\PSoC5/cyfitter_cfg.c **** *
  12:Generated_Source\PSoC5/cyfitter_cfg.c **** ********************************************************************************
  13:Generated_Source\PSoC5/cyfitter_cfg.c **** * Copyright (c) 2007-2018 Cypress Semiconductor.  All rights reserved.
  14:Generated_Source\PSoC5/cyfitter_cfg.c **** * You may use this file only in accordance with the license, terms, conditions, 
  15:Generated_Source\PSoC5/cyfitter_cfg.c **** * disclaimers, and limitations in the end user license agreement accompanying 
  16:Generated_Source\PSoC5/cyfitter_cfg.c **** * the software package with which this file was provided.
  17:Generated_Source\PSoC5/cyfitter_cfg.c **** ********************************************************************************/
  18:Generated_Source\PSoC5/cyfitter_cfg.c **** 
  19:Generated_Source\PSoC5/cyfitter_cfg.c **** #include <string.h>
  20:Generated_Source\PSoC5/cyfitter_cfg.c **** #include "cytypes.h"
  21:Generated_Source\PSoC5/cyfitter_cfg.c **** #include "cydevice_trm.h"
  22:Generated_Source\PSoC5/cyfitter_cfg.c **** #include "cyfitter.h"
  23:Generated_Source\PSoC5/cyfitter_cfg.c **** #include "CyLib.h"
  24:Generated_Source\PSoC5/cyfitter_cfg.c **** #include "cyfitter_cfg.h"
  25:Generated_Source\PSoC5/cyfitter_cfg.c **** #include "cyapicallbacks.h"
  26:Generated_Source\PSoC5/cyfitter_cfg.c **** 
  27:Generated_Source\PSoC5/cyfitter_cfg.c **** #define CY_NEED_CYCLOCKSTARTUPERROR 1
  28:Generated_Source\PSoC5/cyfitter_cfg.c **** 
  29:Generated_Source\PSoC5/cyfitter_cfg.c **** 
  30:Generated_Source\PSoC5/cyfitter_cfg.c **** #if defined(__GNUC__) || defined(__ARMCC_VERSION)
  31:Generated_Source\PSoC5/cyfitter_cfg.c ****     #define CYPACKED 
ARM GAS  C:\Users\ujjjh\AppData\Local\Temp\ccTQTOKf.s 			page 2


  32:Generated_Source\PSoC5/cyfitter_cfg.c ****     #define CYPACKED_ATTR __attribute__ ((packed))
  33:Generated_Source\PSoC5/cyfitter_cfg.c ****     #define CYALIGNED __attribute__ ((aligned))
  34:Generated_Source\PSoC5/cyfitter_cfg.c ****     #define CY_CFG_UNUSED __attribute__ ((unused))
  35:Generated_Source\PSoC5/cyfitter_cfg.c ****     #ifndef CY_CFG_SECTION
  36:Generated_Source\PSoC5/cyfitter_cfg.c ****         #define CY_CFG_SECTION __attribute__ ((section(".psocinit")))
  37:Generated_Source\PSoC5/cyfitter_cfg.c ****     #endif
  38:Generated_Source\PSoC5/cyfitter_cfg.c ****     
  39:Generated_Source\PSoC5/cyfitter_cfg.c ****     #if defined(__ARMCC_VERSION)
  40:Generated_Source\PSoC5/cyfitter_cfg.c ****         #define CY_CFG_MEMORY_BARRIER() __memory_changed()
  41:Generated_Source\PSoC5/cyfitter_cfg.c ****     #else
  42:Generated_Source\PSoC5/cyfitter_cfg.c ****         #define CY_CFG_MEMORY_BARRIER() __sync_synchronize()
  43:Generated_Source\PSoC5/cyfitter_cfg.c ****     #endif
  44:Generated_Source\PSoC5/cyfitter_cfg.c ****     
  45:Generated_Source\PSoC5/cyfitter_cfg.c **** #elif defined(__ICCARM__)
  46:Generated_Source\PSoC5/cyfitter_cfg.c ****     #include <intrinsics.h>
  47:Generated_Source\PSoC5/cyfitter_cfg.c **** 
  48:Generated_Source\PSoC5/cyfitter_cfg.c ****     #define CYPACKED __packed
  49:Generated_Source\PSoC5/cyfitter_cfg.c ****     #define CYPACKED_ATTR 
  50:Generated_Source\PSoC5/cyfitter_cfg.c ****     #define CYALIGNED _Pragma("data_alignment=4")
  51:Generated_Source\PSoC5/cyfitter_cfg.c ****     #define CY_CFG_UNUSED _Pragma("diag_suppress=Pe177")
  52:Generated_Source\PSoC5/cyfitter_cfg.c ****     #define CY_CFG_SECTION _Pragma("location=\".psocinit\"")
  53:Generated_Source\PSoC5/cyfitter_cfg.c ****     
  54:Generated_Source\PSoC5/cyfitter_cfg.c ****     #define CY_CFG_MEMORY_BARRIER() __DMB()
  55:Generated_Source\PSoC5/cyfitter_cfg.c ****     
  56:Generated_Source\PSoC5/cyfitter_cfg.c **** #else
  57:Generated_Source\PSoC5/cyfitter_cfg.c ****     #error Unsupported toolchain
  58:Generated_Source\PSoC5/cyfitter_cfg.c **** #endif
  59:Generated_Source\PSoC5/cyfitter_cfg.c **** 
  60:Generated_Source\PSoC5/cyfitter_cfg.c **** #ifndef CYCODE
  61:Generated_Source\PSoC5/cyfitter_cfg.c ****     #define CYCODE
  62:Generated_Source\PSoC5/cyfitter_cfg.c **** #endif
  63:Generated_Source\PSoC5/cyfitter_cfg.c **** #ifndef CYDATA
  64:Generated_Source\PSoC5/cyfitter_cfg.c ****     #define CYDATA
  65:Generated_Source\PSoC5/cyfitter_cfg.c **** #endif
  66:Generated_Source\PSoC5/cyfitter_cfg.c **** #ifndef CYFAR
  67:Generated_Source\PSoC5/cyfitter_cfg.c ****     #define CYFAR
  68:Generated_Source\PSoC5/cyfitter_cfg.c **** #endif
  69:Generated_Source\PSoC5/cyfitter_cfg.c **** #ifndef CYXDATA
  70:Generated_Source\PSoC5/cyfitter_cfg.c ****     #define CYXDATA
  71:Generated_Source\PSoC5/cyfitter_cfg.c **** #endif
  72:Generated_Source\PSoC5/cyfitter_cfg.c **** 
  73:Generated_Source\PSoC5/cyfitter_cfg.c **** 
  74:Generated_Source\PSoC5/cyfitter_cfg.c **** CY_CFG_UNUSED
  75:Generated_Source\PSoC5/cyfitter_cfg.c **** static void CYMEMZERO(void *s, size_t n);
  76:Generated_Source\PSoC5/cyfitter_cfg.c **** CY_CFG_UNUSED
  77:Generated_Source\PSoC5/cyfitter_cfg.c **** static void CYMEMZERO(void *s, size_t n)
  78:Generated_Source\PSoC5/cyfitter_cfg.c **** {
  79:Generated_Source\PSoC5/cyfitter_cfg.c **** 	(void)memset(s, 0, n);
  80:Generated_Source\PSoC5/cyfitter_cfg.c **** }
  81:Generated_Source\PSoC5/cyfitter_cfg.c **** CY_CFG_UNUSED
  82:Generated_Source\PSoC5/cyfitter_cfg.c **** static void CYCONFIGCPY(void *dest, const void *src, size_t n);
  83:Generated_Source\PSoC5/cyfitter_cfg.c **** CY_CFG_UNUSED
  84:Generated_Source\PSoC5/cyfitter_cfg.c **** static void CYCONFIGCPY(void *dest, const void *src, size_t n)
  85:Generated_Source\PSoC5/cyfitter_cfg.c **** {
  86:Generated_Source\PSoC5/cyfitter_cfg.c **** 	(void)memcpy(dest, src, n);
  87:Generated_Source\PSoC5/cyfitter_cfg.c **** }
  88:Generated_Source\PSoC5/cyfitter_cfg.c **** CY_CFG_UNUSED
ARM GAS  C:\Users\ujjjh\AppData\Local\Temp\ccTQTOKf.s 			page 3


  89:Generated_Source\PSoC5/cyfitter_cfg.c **** static void CYCONFIGCPYCODE(void *dest, const void *src, size_t n);
  90:Generated_Source\PSoC5/cyfitter_cfg.c **** CY_CFG_UNUSED
  91:Generated_Source\PSoC5/cyfitter_cfg.c **** static void CYCONFIGCPYCODE(void *dest, const void *src, size_t n)
  92:Generated_Source\PSoC5/cyfitter_cfg.c **** {
  93:Generated_Source\PSoC5/cyfitter_cfg.c **** 	(void)memcpy(dest, src, n);
  94:Generated_Source\PSoC5/cyfitter_cfg.c **** }
  95:Generated_Source\PSoC5/cyfitter_cfg.c **** 
  96:Generated_Source\PSoC5/cyfitter_cfg.c **** 
  97:Generated_Source\PSoC5/cyfitter_cfg.c **** 
  98:Generated_Source\PSoC5/cyfitter_cfg.c **** 
  99:Generated_Source\PSoC5/cyfitter_cfg.c **** /* Clock startup error codes                                                   */
 100:Generated_Source\PSoC5/cyfitter_cfg.c **** #define CYCLOCKSTART_NO_ERROR    0u
 101:Generated_Source\PSoC5/cyfitter_cfg.c **** #define CYCLOCKSTART_XTAL_ERROR  1u
 102:Generated_Source\PSoC5/cyfitter_cfg.c **** #define CYCLOCKSTART_32KHZ_ERROR 2u
 103:Generated_Source\PSoC5/cyfitter_cfg.c **** #define CYCLOCKSTART_PLL_ERROR   3u
 104:Generated_Source\PSoC5/cyfitter_cfg.c **** #define CYCLOCKSTART_FLL_ERROR   4u
 105:Generated_Source\PSoC5/cyfitter_cfg.c **** #define CYCLOCKSTART_WCO_ERROR   5u
 106:Generated_Source\PSoC5/cyfitter_cfg.c **** 
 107:Generated_Source\PSoC5/cyfitter_cfg.c **** 
 108:Generated_Source\PSoC5/cyfitter_cfg.c **** #ifdef CY_NEED_CYCLOCKSTARTUPERROR
 109:Generated_Source\PSoC5/cyfitter_cfg.c **** /*******************************************************************************
 110:Generated_Source\PSoC5/cyfitter_cfg.c **** * Function Name: CyClockStartupError
 111:Generated_Source\PSoC5/cyfitter_cfg.c **** ********************************************************************************
 112:Generated_Source\PSoC5/cyfitter_cfg.c **** * Summary:
 113:Generated_Source\PSoC5/cyfitter_cfg.c **** *  If an error is encountered during clock configuration (crystal startup error,
 114:Generated_Source\PSoC5/cyfitter_cfg.c **** *  PLL lock error, etc.), the system will end up here.  Unless reimplemented by
 115:Generated_Source\PSoC5/cyfitter_cfg.c **** *  the customer, this function will stop in an infinite loop.
 116:Generated_Source\PSoC5/cyfitter_cfg.c **** *
 117:Generated_Source\PSoC5/cyfitter_cfg.c **** * Parameters:
 118:Generated_Source\PSoC5/cyfitter_cfg.c **** *   void
 119:Generated_Source\PSoC5/cyfitter_cfg.c **** *
 120:Generated_Source\PSoC5/cyfitter_cfg.c **** * Return:
 121:Generated_Source\PSoC5/cyfitter_cfg.c **** *   void
 122:Generated_Source\PSoC5/cyfitter_cfg.c **** *
 123:Generated_Source\PSoC5/cyfitter_cfg.c **** *******************************************************************************/
 124:Generated_Source\PSoC5/cyfitter_cfg.c **** CY_CFG_UNUSED
 125:Generated_Source\PSoC5/cyfitter_cfg.c **** static void CyClockStartupError(uint8 errorCode);
 126:Generated_Source\PSoC5/cyfitter_cfg.c **** CY_CFG_UNUSED
 127:Generated_Source\PSoC5/cyfitter_cfg.c **** static void CyClockStartupError(uint8 errorCode)
 128:Generated_Source\PSoC5/cyfitter_cfg.c **** {
  27              		.loc 1 128 0
  28              		.cfi_startproc
  29              		@ Volatile: function does not return.
  30              		@ args = 0, pretend = 0, frame = 0
  31              		@ frame_needed = 0, uses_anonymous_args = 0
  32              		@ link register save eliminated.
  33              	.LVL0:
  34              	.L2:
  35 0000 FEE7     		b	.L2
  36              		.cfi_endproc
  37              	.LFE3:
  38              		.size	CyClockStartupError, .-CyClockStartupError
  39 0002 00BF     		.section	.text.AnalogSetDefault,"ax",%progbits
  40              		.align	2
  41              		.thumb
  42              		.thumb_func
  43              		.type	AnalogSetDefault, %function
ARM GAS  C:\Users\ujjjh\AppData\Local\Temp\ccTQTOKf.s 			page 4


  44              	AnalogSetDefault:
  45              	.LFB5:
 129:Generated_Source\PSoC5/cyfitter_cfg.c ****     /* To remove the compiler warning if errorCode not used.                */
 130:Generated_Source\PSoC5/cyfitter_cfg.c ****     errorCode = errorCode;
 131:Generated_Source\PSoC5/cyfitter_cfg.c **** 
 132:Generated_Source\PSoC5/cyfitter_cfg.c ****     /* If we have a clock startup error (bad MHz crystal, PLL lock, etc.),  */
 133:Generated_Source\PSoC5/cyfitter_cfg.c ****     /* we will end up here to allow the customer to implement something to  */
 134:Generated_Source\PSoC5/cyfitter_cfg.c ****     /* deal with the clock condition.                                       */
 135:Generated_Source\PSoC5/cyfitter_cfg.c **** 
 136:Generated_Source\PSoC5/cyfitter_cfg.c **** #ifdef CY_CFG_CLOCK_STARTUP_ERROR_CALLBACK
 137:Generated_Source\PSoC5/cyfitter_cfg.c ****     CY_CFG_Clock_Startup_ErrorCallback();
 138:Generated_Source\PSoC5/cyfitter_cfg.c **** #else
 139:Generated_Source\PSoC5/cyfitter_cfg.c ****     /*  If not using CY_CFG_CLOCK_STARTUP_ERROR_CALLBACK, place your clock startup code here. */
 140:Generated_Source\PSoC5/cyfitter_cfg.c ****     /* `#START CyClockStartupError` */
 141:Generated_Source\PSoC5/cyfitter_cfg.c **** 
 142:Generated_Source\PSoC5/cyfitter_cfg.c **** 
 143:Generated_Source\PSoC5/cyfitter_cfg.c **** 
 144:Generated_Source\PSoC5/cyfitter_cfg.c ****     /* `#END` */
 145:Generated_Source\PSoC5/cyfitter_cfg.c **** 
 146:Generated_Source\PSoC5/cyfitter_cfg.c ****     while(1) {}
 147:Generated_Source\PSoC5/cyfitter_cfg.c **** #endif /* CY_CFG_CLOCK_STARTUP_ERROR_CALLBACK */
 148:Generated_Source\PSoC5/cyfitter_cfg.c **** }
 149:Generated_Source\PSoC5/cyfitter_cfg.c **** #endif
 150:Generated_Source\PSoC5/cyfitter_cfg.c **** 
 151:Generated_Source\PSoC5/cyfitter_cfg.c **** /* IOPINS0_1 Address: CYREG_PRT1_DM0 Size (bytes): 8 */
 152:Generated_Source\PSoC5/cyfitter_cfg.c **** #define BS_IOPINS0_1_VAL ((const uint8 CYFAR *)0x48000000u)
 153:Generated_Source\PSoC5/cyfitter_cfg.c **** 
 154:Generated_Source\PSoC5/cyfitter_cfg.c **** /* IOPINS0_4 Address: CYREG_PRT4_DM0 Size (bytes): 8 */
 155:Generated_Source\PSoC5/cyfitter_cfg.c **** #define BS_IOPINS0_4_VAL ((const uint8 CYFAR *)0x48000008u)
 156:Generated_Source\PSoC5/cyfitter_cfg.c **** 
 157:Generated_Source\PSoC5/cyfitter_cfg.c **** 
 158:Generated_Source\PSoC5/cyfitter_cfg.c **** /*******************************************************************************
 159:Generated_Source\PSoC5/cyfitter_cfg.c **** * Function Name: ClockSetup
 160:Generated_Source\PSoC5/cyfitter_cfg.c **** ********************************************************************************
 161:Generated_Source\PSoC5/cyfitter_cfg.c **** *
 162:Generated_Source\PSoC5/cyfitter_cfg.c **** * Summary:
 163:Generated_Source\PSoC5/cyfitter_cfg.c **** *  Performs the initialization of all of the clocks in the device based on the
 164:Generated_Source\PSoC5/cyfitter_cfg.c **** *  settings in the Clock tab of the DWR.  This includes enabling the requested
 165:Generated_Source\PSoC5/cyfitter_cfg.c **** *  clocks and setting the necessary dividers to produce the desired frequency. 
 166:Generated_Source\PSoC5/cyfitter_cfg.c **** *
 167:Generated_Source\PSoC5/cyfitter_cfg.c **** * Parameters:
 168:Generated_Source\PSoC5/cyfitter_cfg.c **** *  void
 169:Generated_Source\PSoC5/cyfitter_cfg.c **** *
 170:Generated_Source\PSoC5/cyfitter_cfg.c **** * Return:
 171:Generated_Source\PSoC5/cyfitter_cfg.c **** *  void
 172:Generated_Source\PSoC5/cyfitter_cfg.c **** *
 173:Generated_Source\PSoC5/cyfitter_cfg.c **** *******************************************************************************/
 174:Generated_Source\PSoC5/cyfitter_cfg.c **** static void ClockSetup(void);
 175:Generated_Source\PSoC5/cyfitter_cfg.c **** static void ClockSetup(void)
 176:Generated_Source\PSoC5/cyfitter_cfg.c **** {
 177:Generated_Source\PSoC5/cyfitter_cfg.c **** 	uint32 timeout;
 178:Generated_Source\PSoC5/cyfitter_cfg.c **** 	uint8 pllLock;
 179:Generated_Source\PSoC5/cyfitter_cfg.c **** 
 180:Generated_Source\PSoC5/cyfitter_cfg.c **** 
 181:Generated_Source\PSoC5/cyfitter_cfg.c **** 	/* Configure ILO based on settings from Clock DWR */
 182:Generated_Source\PSoC5/cyfitter_cfg.c **** 	CY_SET_XTND_REG8((void CYFAR *)(CYREG_SLOWCLK_ILO_CR0), 0x06u);
 183:Generated_Source\PSoC5/cyfitter_cfg.c **** 	CY_SET_XTND_REG8((void CYFAR *)(CYREG_CLKDIST_CR), 0x08u);
ARM GAS  C:\Users\ujjjh\AppData\Local\Temp\ccTQTOKf.s 			page 5


 184:Generated_Source\PSoC5/cyfitter_cfg.c **** 
 185:Generated_Source\PSoC5/cyfitter_cfg.c **** 	/* Configure XTAL based on settings from Clock DWR */
 186:Generated_Source\PSoC5/cyfitter_cfg.c **** 	CY_SET_XTND_REG16((void CYFAR *)(CYREG_FASTCLK_XMHZ_CFG0), 0x3313u);
 187:Generated_Source\PSoC5/cyfitter_cfg.c **** 	CY_SET_XTND_REG8((void CYFAR *)(CYREG_FASTCLK_XMHZ_CSR), 0x05u);
 188:Generated_Source\PSoC5/cyfitter_cfg.c **** 	/* Wait up to 130000us for the XTAL to lock */
 189:Generated_Source\PSoC5/cyfitter_cfg.c **** 	CY_GET_XTND_REG8((void CYFAR *)CYREG_FASTCLK_XMHZ_CSR);
 190:Generated_Source\PSoC5/cyfitter_cfg.c **** 	for (timeout = 130000u / 10u; (timeout > 0u) && ((CY_GET_XTND_REG8((void CYFAR *)CYREG_FASTCLK_XMH
 191:Generated_Source\PSoC5/cyfitter_cfg.c **** 	{ 
 192:Generated_Source\PSoC5/cyfitter_cfg.c **** 		
 193:Generated_Source\PSoC5/cyfitter_cfg.c **** 		CyDelayCycles(10u * 48u); /* Delay 10us based on 48MHz clock */
 194:Generated_Source\PSoC5/cyfitter_cfg.c **** 	}
 195:Generated_Source\PSoC5/cyfitter_cfg.c **** 	if (timeout == 0u)
 196:Generated_Source\PSoC5/cyfitter_cfg.c **** 	{
 197:Generated_Source\PSoC5/cyfitter_cfg.c **** 		CyClockStartupError(CYCLOCKSTART_XTAL_ERROR);
 198:Generated_Source\PSoC5/cyfitter_cfg.c **** 	}
 199:Generated_Source\PSoC5/cyfitter_cfg.c **** 	CY_SET_XTND_REG8((void CYFAR *)(CYREG_CLKDIST_CR), 0x48u);
 200:Generated_Source\PSoC5/cyfitter_cfg.c **** 
 201:Generated_Source\PSoC5/cyfitter_cfg.c **** 	/* Configure IMO based on settings from Clock DWR */
 202:Generated_Source\PSoC5/cyfitter_cfg.c **** 	CY_SET_XTND_REG8((void CYFAR *)(CYREG_FASTCLK_IMO_CR), 0x70u);
 203:Generated_Source\PSoC5/cyfitter_cfg.c **** 
 204:Generated_Source\PSoC5/cyfitter_cfg.c **** 	/* Configure PLL based on settings from Clock DWR */
 205:Generated_Source\PSoC5/cyfitter_cfg.c **** 	CY_SET_XTND_REG16((void CYFAR *)(CYREG_FASTCLK_PLL_P), 0x070Bu);
 206:Generated_Source\PSoC5/cyfitter_cfg.c **** 	CY_SET_XTND_REG16((void CYFAR *)(CYREG_FASTCLK_PLL_CFG0), 0x1251u);
 207:Generated_Source\PSoC5/cyfitter_cfg.c **** 	/* Wait up to 250us for the PLL to lock */
 208:Generated_Source\PSoC5/cyfitter_cfg.c **** 	pllLock = 0u;
 209:Generated_Source\PSoC5/cyfitter_cfg.c **** 	for (timeout = 250u / 10u; (timeout > 0u) && (pllLock != 0x03u); timeout--)
 210:Generated_Source\PSoC5/cyfitter_cfg.c **** 	{ 
 211:Generated_Source\PSoC5/cyfitter_cfg.c **** 		pllLock = 0x03u & ((uint8)((uint8)pllLock << 1) | ((CY_GET_XTND_REG8((void CYFAR *)CYREG_FASTCLK_
 212:Generated_Source\PSoC5/cyfitter_cfg.c **** 		CyDelayCycles(10u * 48u); /* Delay 10us based on 48MHz clock */
 213:Generated_Source\PSoC5/cyfitter_cfg.c **** 	}
 214:Generated_Source\PSoC5/cyfitter_cfg.c **** 	/* If we ran out of time the PLL didn't lock so go to the error function */
 215:Generated_Source\PSoC5/cyfitter_cfg.c **** 	if (timeout == 0u)
 216:Generated_Source\PSoC5/cyfitter_cfg.c **** 	{
 217:Generated_Source\PSoC5/cyfitter_cfg.c **** 		CyClockStartupError(CYCLOCKSTART_PLL_ERROR);
 218:Generated_Source\PSoC5/cyfitter_cfg.c **** 	}
 219:Generated_Source\PSoC5/cyfitter_cfg.c **** 
 220:Generated_Source\PSoC5/cyfitter_cfg.c **** 	/* Configure Bus/Master Clock based on settings from Clock DWR */
 221:Generated_Source\PSoC5/cyfitter_cfg.c **** 	CY_SET_XTND_REG16((void CYFAR *)(CYREG_CLKDIST_MSTR0), 0x0100u);
 222:Generated_Source\PSoC5/cyfitter_cfg.c **** 	CY_SET_XTND_REG8((void CYFAR *)(CYREG_CLKDIST_MSTR0), 0x07u);
 223:Generated_Source\PSoC5/cyfitter_cfg.c **** 	CY_SET_XTND_REG8((void CYFAR *)(CYREG_CLKDIST_BCFG0), 0x00u);
 224:Generated_Source\PSoC5/cyfitter_cfg.c **** 	CY_SET_XTND_REG8((void CYFAR *)(CYREG_CLKDIST_BCFG2), 0x48u);
 225:Generated_Source\PSoC5/cyfitter_cfg.c **** 	CY_SET_XTND_REG8((void CYFAR *)(CYREG_CLKDIST_MSTR0), 0x00u);
 226:Generated_Source\PSoC5/cyfitter_cfg.c **** 
 227:Generated_Source\PSoC5/cyfitter_cfg.c **** 	/* Configure USB Clock based on settings from Clock DWR */
 228:Generated_Source\PSoC5/cyfitter_cfg.c **** 	CY_SET_XTND_REG8((void CYFAR *)(CYREG_CLKDIST_UCFG), 0x00u);
 229:Generated_Source\PSoC5/cyfitter_cfg.c **** 	CY_SET_XTND_REG8((void CYFAR *)(CYREG_CLKDIST_LD), 0x02u);
 230:Generated_Source\PSoC5/cyfitter_cfg.c **** }
 231:Generated_Source\PSoC5/cyfitter_cfg.c **** 
 232:Generated_Source\PSoC5/cyfitter_cfg.c **** 
 233:Generated_Source\PSoC5/cyfitter_cfg.c **** /* Analog API Functions */
 234:Generated_Source\PSoC5/cyfitter_cfg.c **** 
 235:Generated_Source\PSoC5/cyfitter_cfg.c **** 
 236:Generated_Source\PSoC5/cyfitter_cfg.c **** /*******************************************************************************
 237:Generated_Source\PSoC5/cyfitter_cfg.c **** * Function Name: AnalogSetDefault
 238:Generated_Source\PSoC5/cyfitter_cfg.c **** ********************************************************************************
 239:Generated_Source\PSoC5/cyfitter_cfg.c **** *
 240:Generated_Source\PSoC5/cyfitter_cfg.c **** * Summary:
ARM GAS  C:\Users\ujjjh\AppData\Local\Temp\ccTQTOKf.s 			page 6


 241:Generated_Source\PSoC5/cyfitter_cfg.c **** *  Sets up the analog portions of the chip to default values based on chip
 242:Generated_Source\PSoC5/cyfitter_cfg.c **** *  configuration options from the project.
 243:Generated_Source\PSoC5/cyfitter_cfg.c **** *
 244:Generated_Source\PSoC5/cyfitter_cfg.c **** * Parameters:
 245:Generated_Source\PSoC5/cyfitter_cfg.c **** *  void
 246:Generated_Source\PSoC5/cyfitter_cfg.c **** *
 247:Generated_Source\PSoC5/cyfitter_cfg.c **** * Return:
 248:Generated_Source\PSoC5/cyfitter_cfg.c **** *  void
 249:Generated_Source\PSoC5/cyfitter_cfg.c **** *
 250:Generated_Source\PSoC5/cyfitter_cfg.c **** *******************************************************************************/
 251:Generated_Source\PSoC5/cyfitter_cfg.c **** static void AnalogSetDefault(void);
 252:Generated_Source\PSoC5/cyfitter_cfg.c **** static void AnalogSetDefault(void)
 253:Generated_Source\PSoC5/cyfitter_cfg.c **** {
  46              		.loc 1 253 0
  47              		.cfi_startproc
  48              		@ args = 0, pretend = 0, frame = 0
  49              		@ frame_needed = 0, uses_anonymous_args = 0
  50              		@ link register save eliminated.
 254:Generated_Source\PSoC5/cyfitter_cfg.c **** 	uint8 bg_xover_inl_trim = CY_GET_XTND_REG8((void CYFAR *)(CYREG_FLSHID_MFG_CFG_BG_XOVER_INL_TRIM +
  51              		.loc 1 254 0
  52 0000 114B     		ldr	r3, .L4
  53 0002 1B78     		ldrb	r3, [r3]	@ zero_extendqisi2
  54 0004 DBB2     		uxtb	r3, r3
  55              	.LVL1:
 255:Generated_Source\PSoC5/cyfitter_cfg.c **** 	CY_SET_XTND_REG8((void CYFAR *)(CYREG_BG_DFT0), (bg_xover_inl_trim & 0x07u));
  56              		.loc 1 255 0
  57 0006 03F00701 		and	r1, r3, #7
  58 000a 104A     		ldr	r2, .L4+4
  59 000c 1170     		strb	r1, [r2]
 256:Generated_Source\PSoC5/cyfitter_cfg.c **** 	CY_SET_XTND_REG8((void CYFAR *)(CYREG_BG_DFT1), ((bg_xover_inl_trim >> 4) & 0x0Fu));
  60              		.loc 1 256 0
  61 000e 1B09     		lsrs	r3, r3, #4
  62              	.LVL2:
  63 0010 0132     		adds	r2, r2, #1
  64 0012 1370     		strb	r3, [r2]
 257:Generated_Source\PSoC5/cyfitter_cfg.c **** 	CY_SET_XTND_REG16((void CYFAR *)CYREG_PRT4_AMUX, 0x0408u);
  65              		.loc 1 257 0
  66 0014 4FF48162 		mov	r2, #1032
  67 0018 0D4B     		ldr	r3, .L4+8
  68 001a 1A80     		strh	r2, [r3]	@ movhi
 258:Generated_Source\PSoC5/cyfitter_cfg.c **** 	CY_SET_XTND_REG8((void CYFAR *)CYREG_SC2_SW0, 0x10u);
  69              		.loc 1 258 0
  70 001c 1023     		movs	r3, #16
  71 001e 0D4A     		ldr	r2, .L4+12
  72 0020 1370     		strb	r3, [r2]
 259:Generated_Source\PSoC5/cyfitter_cfg.c **** 	CY_SET_XTND_REG8((void CYFAR *)CYREG_SC2_SW4, 0x20u);
  73              		.loc 1 259 0
  74 0022 2022     		movs	r2, #32
  75 0024 0C49     		ldr	r1, .L4+16
  76 0026 0A70     		strb	r2, [r1]
 260:Generated_Source\PSoC5/cyfitter_cfg.c **** 	CY_SET_XTND_REG8((void CYFAR *)CYREG_SC2_SW8, 0x40u);
  77              		.loc 1 260 0
  78 0028 4020     		movs	r0, #64
  79 002a 0431     		adds	r1, r1, #4
  80 002c 0870     		strb	r0, [r1]
 261:Generated_Source\PSoC5/cyfitter_cfg.c **** 	CY_SET_XTND_REG8((void CYFAR *)CYREG_DAC0_SW3, 0x01u);
  81              		.loc 1 261 0
ARM GAS  C:\Users\ujjjh\AppData\Local\Temp\ccTQTOKf.s 			page 7


  82 002e 0120     		movs	r0, #1
  83 0030 5B31     		adds	r1, r1, #91
  84 0032 0870     		strb	r0, [r1]
 262:Generated_Source\PSoC5/cyfitter_cfg.c **** 	CY_SET_XTND_REG8((void CYFAR *)CYREG_DAC2_SW0, 0x20u);
  85              		.loc 1 262 0
  86 0034 0D31     		adds	r1, r1, #13
  87 0036 0A70     		strb	r2, [r1]
 263:Generated_Source\PSoC5/cyfitter_cfg.c **** 	CY_SET_XTND_REG8((void CYFAR *)CYREG_DAC3_SW0, 0x10u);
  88              		.loc 1 263 0
  89 0038 084A     		ldr	r2, .L4+20
  90 003a 1370     		strb	r3, [r2]
 264:Generated_Source\PSoC5/cyfitter_cfg.c **** 	CY_SET_XTND_REG8((void CYFAR *)CYREG_BUS_SW0, 0x10u);
  91              		.loc 1 264 0
  92 003c C032     		adds	r2, r2, #192
  93 003e 1370     		strb	r3, [r2]
 265:Generated_Source\PSoC5/cyfitter_cfg.c **** 	CY_SET_XTND_REG8((void CYFAR *)CYREG_PUMP_CR0, 0x44u);
  94              		.loc 1 265 0
  95 0040 4422     		movs	r2, #68
  96 0042 074B     		ldr	r3, .L4+24
  97 0044 1A70     		strb	r2, [r3]
  98 0046 7047     		bx	lr
  99              	.L5:
 100              		.align	2
 101              	.L4:
 102 0048 CF010049 		.word	1224737231
 103 004c 6E580040 		.word	1073764462
 104 0050 4C510040 		.word	1073762636
 105 0054 205A0040 		.word	1073764896
 106 0058 245A0040 		.word	1073764900
 107 005c 985A0040 		.word	1073765016
 108 0060 76580040 		.word	1073764470
 109              		.cfi_endproc
 110              	.LFE5:
 111              		.size	AnalogSetDefault, .-AnalogSetDefault
 112              		.section	.text.CYMEMZERO,"ax",%progbits
 113              		.align	2
 114              		.thumb
 115              		.thumb_func
 116              		.type	CYMEMZERO, %function
 117              	CYMEMZERO:
 118              	.LFB0:
  78:Generated_Source\PSoC5/cyfitter_cfg.c **** 	(void)memset(s, 0, n);
 119              		.loc 1 78 0
 120              		.cfi_startproc
 121              		@ args = 0, pretend = 0, frame = 0
 122              		@ frame_needed = 0, uses_anonymous_args = 0
 123              	.LVL3:
 124 0000 08B5     		push	{r3, lr}
 125              		.cfi_def_cfa_offset 8
 126              		.cfi_offset 3, -8
 127              		.cfi_offset 14, -4
  79:Generated_Source\PSoC5/cyfitter_cfg.c **** }
 128              		.loc 1 79 0
 129 0002 0A46     		mov	r2, r1
 130 0004 0021     		movs	r1, #0
 131              	.LVL4:
 132 0006 FFF7FEFF 		bl	memset
ARM GAS  C:\Users\ujjjh\AppData\Local\Temp\ccTQTOKf.s 			page 8


 133              	.LVL5:
 134 000a 08BD     		pop	{r3, pc}
 135              		.cfi_endproc
 136              	.LFE0:
 137              		.size	CYMEMZERO, .-CYMEMZERO
 138              		.section	.text.ClockSetup,"ax",%progbits
 139              		.align	2
 140              		.thumb
 141              		.thumb_func
 142              		.type	ClockSetup, %function
 143              	ClockSetup:
 144              	.LFB4:
 176:Generated_Source\PSoC5/cyfitter_cfg.c **** 	uint32 timeout;
 145              		.loc 1 176 0
 146              		.cfi_startproc
 147              		@ args = 0, pretend = 0, frame = 0
 148              		@ frame_needed = 0, uses_anonymous_args = 0
 149 0000 38B5     		push	{r3, r4, r5, lr}
 150              		.cfi_def_cfa_offset 16
 151              		.cfi_offset 3, -16
 152              		.cfi_offset 4, -12
 153              		.cfi_offset 5, -8
 154              		.cfi_offset 14, -4
 182:Generated_Source\PSoC5/cyfitter_cfg.c **** 	CY_SET_XTND_REG8((void CYFAR *)(CYREG_CLKDIST_CR), 0x08u);
 155              		.loc 1 182 0
 156 0002 0622     		movs	r2, #6
 157 0004 2D4B     		ldr	r3, .L18
 158 0006 1A70     		strb	r2, [r3]
 183:Generated_Source\PSoC5/cyfitter_cfg.c **** 
 159              		.loc 1 183 0
 160 0008 0822     		movs	r2, #8
 161 000a 4FF04023 		mov	r3, #1073758208
 162 000e 1A70     		strb	r2, [r3]
 186:Generated_Source\PSoC5/cyfitter_cfg.c **** 	CY_SET_XTND_REG8((void CYFAR *)(CYREG_FASTCLK_XMHZ_CSR), 0x05u);
 163              		.loc 1 186 0
 164 0010 43F21332 		movw	r2, #13075
 165 0014 03F21223 		addw	r3, r3, #530
 166 0018 1A80     		strh	r2, [r3]	@ movhi
 187:Generated_Source\PSoC5/cyfitter_cfg.c **** 	/* Wait up to 130000us for the XTAL to lock */
 167              		.loc 1 187 0
 168 001a 023B     		subs	r3, r3, #2
 169 001c 0522     		movs	r2, #5
 170 001e 1A70     		strb	r2, [r3]
 189:Generated_Source\PSoC5/cyfitter_cfg.c **** 	for (timeout = 130000u / 10u; (timeout > 0u) && ((CY_GET_XTND_REG8((void CYFAR *)CYREG_FASTCLK_XMH
 171              		.loc 1 189 0
 172 0020 1B78     		ldrb	r3, [r3]	@ zero_extendqisi2
 173              	.LVL6:
 190:Generated_Source\PSoC5/cyfitter_cfg.c **** 	{ 
 174              		.loc 1 190 0
 175 0022 43F2C824 		movw	r4, #13000
 176 0026 04E0     		b	.L9
 177              	.LVL7:
 178              	.L11:
 193:Generated_Source\PSoC5/cyfitter_cfg.c **** 	}
 179              		.loc 1 193 0 discriminator 4
 180 0028 4FF4F070 		mov	r0, #480
 181 002c FFF7FEFF 		bl	CyDelayCycles
ARM GAS  C:\Users\ujjjh\AppData\Local\Temp\ccTQTOKf.s 			page 9


 182              	.LVL8:
 190:Generated_Source\PSoC5/cyfitter_cfg.c **** 	{ 
 183              		.loc 1 190 0 discriminator 4
 184 0030 013C     		subs	r4, r4, #1
 185              	.LVL9:
 186              	.L9:
 190:Generated_Source\PSoC5/cyfitter_cfg.c **** 	{ 
 187              		.loc 1 190 0 is_stmt 0 discriminator 1
 188 0032 24B1     		cbz	r4, .L10
 190:Generated_Source\PSoC5/cyfitter_cfg.c **** 	{ 
 189              		.loc 1 190 0 discriminator 3
 190 0034 224B     		ldr	r3, .L18+4
 191 0036 1B78     		ldrb	r3, [r3]	@ zero_extendqisi2
 192 0038 13F0800F 		tst	r3, #128
 193 003c F4D1     		bne	.L11
 194              	.L10:
 195:Generated_Source\PSoC5/cyfitter_cfg.c **** 	{
 195              		.loc 1 195 0 is_stmt 1
 196 003e 14B9     		cbnz	r4, .L12
 197:Generated_Source\PSoC5/cyfitter_cfg.c **** 	}
 197              		.loc 1 197 0
 198 0040 0120     		movs	r0, #1
 199 0042 FFF7FEFF 		bl	CyClockStartupError
 200              	.LVL10:
 201              	.L12:
 199:Generated_Source\PSoC5/cyfitter_cfg.c **** 
 202              		.loc 1 199 0
 203 0046 4822     		movs	r2, #72
 204 0048 4FF04023 		mov	r3, #1073758208
 205 004c 1A70     		strb	r2, [r3]
 202:Generated_Source\PSoC5/cyfitter_cfg.c **** 
 206              		.loc 1 202 0
 207 004e 7022     		movs	r2, #112
 208 0050 03F50073 		add	r3, r3, #512
 209 0054 1A70     		strb	r2, [r3]
 205:Generated_Source\PSoC5/cyfitter_cfg.c **** 	CY_SET_XTND_REG16((void CYFAR *)(CYREG_FASTCLK_PLL_CFG0), 0x1251u);
 210              		.loc 1 205 0
 211 0056 40F20B72 		movw	r2, #1803
 212 005a 2233     		adds	r3, r3, #34
 213 005c 1A80     		strh	r2, [r3]	@ movhi
 206:Generated_Source\PSoC5/cyfitter_cfg.c **** 	/* Wait up to 250us for the PLL to lock */
 214              		.loc 1 206 0
 215 005e 41F25122 		movw	r2, #4689
 216 0062 023B     		subs	r3, r3, #2
 217 0064 1A80     		strh	r2, [r3]	@ movhi
 218              	.LVL11:
 208:Generated_Source\PSoC5/cyfitter_cfg.c **** 	for (timeout = 250u / 10u; (timeout > 0u) && (pllLock != 0x03u); timeout--)
 219              		.loc 1 208 0
 220 0066 0024     		movs	r4, #0
 209:Generated_Source\PSoC5/cyfitter_cfg.c **** 	{ 
 221              		.loc 1 209 0
 222 0068 1925     		movs	r5, #25
 223 006a 0CE0     		b	.L13
 224              	.LVL12:
 225              	.L15:
 211:Generated_Source\PSoC5/cyfitter_cfg.c **** 		CyDelayCycles(10u * 48u); /* Delay 10us based on 48MHz clock */
 226              		.loc 1 211 0 discriminator 4
ARM GAS  C:\Users\ujjjh\AppData\Local\Temp\ccTQTOKf.s 			page 10


 227 006c 154B     		ldr	r3, .L18+8
 228 006e 1B78     		ldrb	r3, [r3]	@ zero_extendqisi2
 229 0070 03F00103 		and	r3, r3, #1
 230 0074 43EA4404 		orr	r4, r3, r4, lsl #1
 231              	.LVL13:
 232 0078 04F00304 		and	r4, r4, #3
 233              	.LVL14:
 212:Generated_Source\PSoC5/cyfitter_cfg.c **** 	}
 234              		.loc 1 212 0 discriminator 4
 235 007c 4FF4F070 		mov	r0, #480
 236 0080 FFF7FEFF 		bl	CyDelayCycles
 237              	.LVL15:
 209:Generated_Source\PSoC5/cyfitter_cfg.c **** 	{ 
 238              		.loc 1 209 0 discriminator 4
 239 0084 013D     		subs	r5, r5, #1
 240              	.LVL16:
 241              	.L13:
 209:Generated_Source\PSoC5/cyfitter_cfg.c **** 	{ 
 242              		.loc 1 209 0 is_stmt 0 discriminator 1
 243 0086 0DB1     		cbz	r5, .L14
 209:Generated_Source\PSoC5/cyfitter_cfg.c **** 	{ 
 244              		.loc 1 209 0 discriminator 3
 245 0088 032C     		cmp	r4, #3
 246 008a EFD1     		bne	.L15
 247              	.L14:
 215:Generated_Source\PSoC5/cyfitter_cfg.c **** 	{
 248              		.loc 1 215 0 is_stmt 1
 249 008c 15B9     		cbnz	r5, .L16
 217:Generated_Source\PSoC5/cyfitter_cfg.c **** 	}
 250              		.loc 1 217 0
 251 008e 0320     		movs	r0, #3
 252 0090 FFF7FEFF 		bl	CyClockStartupError
 253              	.LVL17:
 254              	.L16:
 221:Generated_Source\PSoC5/cyfitter_cfg.c **** 	CY_SET_XTND_REG8((void CYFAR *)(CYREG_CLKDIST_MSTR0), 0x07u);
 255              		.loc 1 221 0
 256 0094 0C4A     		ldr	r2, .L18+12
 257 0096 4FF48073 		mov	r3, #256
 258 009a 1380     		strh	r3, [r2]	@ movhi
 222:Generated_Source\PSoC5/cyfitter_cfg.c **** 	CY_SET_XTND_REG8((void CYFAR *)(CYREG_CLKDIST_BCFG0), 0x00u);
 259              		.loc 1 222 0
 260 009c 0723     		movs	r3, #7
 261 009e 1370     		strb	r3, [r2]
 223:Generated_Source\PSoC5/cyfitter_cfg.c **** 	CY_SET_XTND_REG8((void CYFAR *)(CYREG_CLKDIST_BCFG2), 0x48u);
 262              		.loc 1 223 0
 263 00a0 0023     		movs	r3, #0
 264 00a2 0A49     		ldr	r1, .L18+16
 265 00a4 0B70     		strb	r3, [r1]
 224:Generated_Source\PSoC5/cyfitter_cfg.c **** 	CY_SET_XTND_REG8((void CYFAR *)(CYREG_CLKDIST_MSTR0), 0x00u);
 266              		.loc 1 224 0
 267 00a6 4820     		movs	r0, #72
 268 00a8 0231     		adds	r1, r1, #2
 269 00aa 0870     		strb	r0, [r1]
 225:Generated_Source\PSoC5/cyfitter_cfg.c **** 
 270              		.loc 1 225 0
 271 00ac 1370     		strb	r3, [r2]
 228:Generated_Source\PSoC5/cyfitter_cfg.c **** 	CY_SET_XTND_REG8((void CYFAR *)(CYREG_CLKDIST_LD), 0x02u);
ARM GAS  C:\Users\ujjjh\AppData\Local\Temp\ccTQTOKf.s 			page 11


 272              		.loc 1 228 0
 273 00ae 0532     		adds	r2, r2, #5
 274 00b0 1370     		strb	r3, [r2]
 229:Generated_Source\PSoC5/cyfitter_cfg.c **** }
 275              		.loc 1 229 0
 276 00b2 0222     		movs	r2, #2
 277 00b4 064B     		ldr	r3, .L18+20
 278 00b6 1A70     		strb	r2, [r3]
 279 00b8 38BD     		pop	{r3, r4, r5, pc}
 280              	.LVL18:
 281              	.L19:
 282 00ba 00BF     		.align	2
 283              	.L18:
 284 00bc 00430040 		.word	1073758976
 285 00c0 10420040 		.word	1073758736
 286 00c4 25420040 		.word	1073758757
 287 00c8 04400040 		.word	1073758212
 288 00cc 06400040 		.word	1073758214
 289 00d0 01400040 		.word	1073758209
 290              		.cfi_endproc
 291              	.LFE4:
 292              		.size	ClockSetup, .-ClockSetup
 293              		.section	.text.CYCONFIGCPY,"ax",%progbits
 294              		.align	2
 295              		.thumb
 296              		.thumb_func
 297              		.type	CYCONFIGCPY, %function
 298              	CYCONFIGCPY:
 299              	.LFB1:
  85:Generated_Source\PSoC5/cyfitter_cfg.c **** 	(void)memcpy(dest, src, n);
 300              		.loc 1 85 0
 301              		.cfi_startproc
 302              		@ args = 0, pretend = 0, frame = 0
 303              		@ frame_needed = 0, uses_anonymous_args = 0
 304              	.LVL19:
 305 0000 08B5     		push	{r3, lr}
 306              		.cfi_def_cfa_offset 8
 307              		.cfi_offset 3, -8
 308              		.cfi_offset 14, -4
  86:Generated_Source\PSoC5/cyfitter_cfg.c **** }
 309              		.loc 1 86 0
 310 0002 FFF7FEFF 		bl	memcpy
 311              	.LVL20:
 312 0006 08BD     		pop	{r3, pc}
 313              		.cfi_endproc
 314              	.LFE1:
 315              		.size	CYCONFIGCPY, .-CYCONFIGCPY
 316              		.section	.text.SetAnalogRoutingPumps,"ax",%progbits
 317              		.align	2
 318              		.global	SetAnalogRoutingPumps
 319              		.thumb
 320              		.thumb_func
 321              		.type	SetAnalogRoutingPumps, %function
 322              	SetAnalogRoutingPumps:
 323              	.LFB6:
 266:Generated_Source\PSoC5/cyfitter_cfg.c **** }
 267:Generated_Source\PSoC5/cyfitter_cfg.c **** 
ARM GAS  C:\Users\ujjjh\AppData\Local\Temp\ccTQTOKf.s 			page 12


 268:Generated_Source\PSoC5/cyfitter_cfg.c **** 
 269:Generated_Source\PSoC5/cyfitter_cfg.c **** /*******************************************************************************
 270:Generated_Source\PSoC5/cyfitter_cfg.c **** * Function Name: SetAnalogRoutingPumps
 271:Generated_Source\PSoC5/cyfitter_cfg.c **** ********************************************************************************
 272:Generated_Source\PSoC5/cyfitter_cfg.c **** *
 273:Generated_Source\PSoC5/cyfitter_cfg.c **** * Summary:
 274:Generated_Source\PSoC5/cyfitter_cfg.c **** * Enables or disables the analog pumps feeding analog routing switches.
 275:Generated_Source\PSoC5/cyfitter_cfg.c **** * Intended to be called at startup, based on the Vdda system configuration;
 276:Generated_Source\PSoC5/cyfitter_cfg.c **** * may be called during operation when the user informs us that the Vdda voltage
 277:Generated_Source\PSoC5/cyfitter_cfg.c **** * crossed the pump threshold.
 278:Generated_Source\PSoC5/cyfitter_cfg.c **** *
 279:Generated_Source\PSoC5/cyfitter_cfg.c **** * Parameters:
 280:Generated_Source\PSoC5/cyfitter_cfg.c **** *  enabled - 1 to enable the pumps, 0 to disable the pumps
 281:Generated_Source\PSoC5/cyfitter_cfg.c **** *
 282:Generated_Source\PSoC5/cyfitter_cfg.c **** * Return:
 283:Generated_Source\PSoC5/cyfitter_cfg.c **** *  void
 284:Generated_Source\PSoC5/cyfitter_cfg.c **** *
 285:Generated_Source\PSoC5/cyfitter_cfg.c **** *******************************************************************************/
 286:Generated_Source\PSoC5/cyfitter_cfg.c **** void SetAnalogRoutingPumps(uint8 enabled)
 287:Generated_Source\PSoC5/cyfitter_cfg.c **** {
 324              		.loc 1 287 0
 325              		.cfi_startproc
 326              		@ args = 0, pretend = 0, frame = 0
 327              		@ frame_needed = 0, uses_anonymous_args = 0
 328              		@ link register save eliminated.
 329              	.LVL21:
 288:Generated_Source\PSoC5/cyfitter_cfg.c **** 	uint8 regValue = CY_GET_XTND_REG8((void CYFAR *)CYREG_PUMP_CR0);
 330              		.loc 1 288 0
 331 0000 054B     		ldr	r3, .L25
 332 0002 1B78     		ldrb	r3, [r3]	@ zero_extendqisi2
 333 0004 DBB2     		uxtb	r3, r3
 334              	.LVL22:
 289:Generated_Source\PSoC5/cyfitter_cfg.c **** 	if (enabled != 0u)
 335              		.loc 1 289 0
 336 0006 10B1     		cbz	r0, .L23
 290:Generated_Source\PSoC5/cyfitter_cfg.c **** 	{
 291:Generated_Source\PSoC5/cyfitter_cfg.c **** 		regValue |= 0x22u;
 337              		.loc 1 291 0
 338 0008 43F02203 		orr	r3, r3, #34
 339              	.LVL23:
 340 000c 01E0     		b	.L24
 341              	.L23:
 292:Generated_Source\PSoC5/cyfitter_cfg.c **** 	}
 293:Generated_Source\PSoC5/cyfitter_cfg.c **** 	else
 294:Generated_Source\PSoC5/cyfitter_cfg.c **** 	{
 295:Generated_Source\PSoC5/cyfitter_cfg.c **** 		regValue &= (uint8)~0x22u;
 342              		.loc 1 295 0
 343 000e 03F0DD03 		and	r3, r3, #221
 344              	.LVL24:
 345              	.L24:
 296:Generated_Source\PSoC5/cyfitter_cfg.c **** 	}
 297:Generated_Source\PSoC5/cyfitter_cfg.c **** 	CY_SET_XTND_REG8((void CYFAR *)CYREG_PUMP_CR0, regValue);
 346              		.loc 1 297 0
 347 0012 014A     		ldr	r2, .L25
 348 0014 1370     		strb	r3, [r2]
 349 0016 7047     		bx	lr
 350              	.L26:
ARM GAS  C:\Users\ujjjh\AppData\Local\Temp\ccTQTOKf.s 			page 13


 351              		.align	2
 352              	.L25:
 353 0018 76580040 		.word	1073764470
 354              		.cfi_endproc
 355              	.LFE6:
 356              		.size	SetAnalogRoutingPumps, .-SetAnalogRoutingPumps
 357              		.section	.text.cyfitter_cfg,"ax",%progbits
 358              		.align	2
 359              		.global	cyfitter_cfg
 360              		.thumb
 361              		.thumb_func
 362              		.type	cyfitter_cfg, %function
 363              	cyfitter_cfg:
 364              	.LFB7:
 298:Generated_Source\PSoC5/cyfitter_cfg.c **** }
 299:Generated_Source\PSoC5/cyfitter_cfg.c **** 
 300:Generated_Source\PSoC5/cyfitter_cfg.c **** 
 301:Generated_Source\PSoC5/cyfitter_cfg.c **** 
 302:Generated_Source\PSoC5/cyfitter_cfg.c **** 
 303:Generated_Source\PSoC5/cyfitter_cfg.c **** /*******************************************************************************
 304:Generated_Source\PSoC5/cyfitter_cfg.c **** * Function Name: cyfitter_cfg
 305:Generated_Source\PSoC5/cyfitter_cfg.c **** ********************************************************************************
 306:Generated_Source\PSoC5/cyfitter_cfg.c **** * Summary:
 307:Generated_Source\PSoC5/cyfitter_cfg.c **** *  This function is called by the start-up code for the selected device. It
 308:Generated_Source\PSoC5/cyfitter_cfg.c **** *  performs all of the necessary device configuration based on the design
 309:Generated_Source\PSoC5/cyfitter_cfg.c **** *  settings.  This includes settings from the Design Wide Resources (DWR) such
 310:Generated_Source\PSoC5/cyfitter_cfg.c **** *  as Clocks and Pins as well as any component configuration that is necessary.
 311:Generated_Source\PSoC5/cyfitter_cfg.c **** *
 312:Generated_Source\PSoC5/cyfitter_cfg.c **** * Parameters:
 313:Generated_Source\PSoC5/cyfitter_cfg.c **** *   void
 314:Generated_Source\PSoC5/cyfitter_cfg.c **** *
 315:Generated_Source\PSoC5/cyfitter_cfg.c **** * Return:
 316:Generated_Source\PSoC5/cyfitter_cfg.c **** *   void
 317:Generated_Source\PSoC5/cyfitter_cfg.c **** *
 318:Generated_Source\PSoC5/cyfitter_cfg.c **** *******************************************************************************/
 319:Generated_Source\PSoC5/cyfitter_cfg.c **** 
 320:Generated_Source\PSoC5/cyfitter_cfg.c **** void cyfitter_cfg(void)
 321:Generated_Source\PSoC5/cyfitter_cfg.c **** {
 365              		.loc 1 321 0
 366              		.cfi_startproc
 367              		@ args = 0, pretend = 0, frame = 0
 368              		@ frame_needed = 0, uses_anonymous_args = 0
 369 0000 38B5     		push	{r3, r4, r5, lr}
 370              		.cfi_def_cfa_offset 16
 371              		.cfi_offset 3, -16
 372              		.cfi_offset 4, -12
 373              		.cfi_offset 5, -8
 374              		.cfi_offset 14, -4
 322:Generated_Source\PSoC5/cyfitter_cfg.c **** #ifdef CYGlobalIntDisable
 323:Generated_Source\PSoC5/cyfitter_cfg.c **** 	/* Disable interrupts by default. Let user enable if/when they want. */
 324:Generated_Source\PSoC5/cyfitter_cfg.c **** 	CYGlobalIntDisable
 375              		.loc 1 324 0
 376              		.syntax unified
 377              	@ 324 "Generated_Source\PSoC5\cyfitter_cfg.c" 1
 378 0002 72B6     		CPSID   i
 379              	@ 0 "" 2
 325:Generated_Source\PSoC5/cyfitter_cfg.c **** #endif
ARM GAS  C:\Users\ujjjh\AppData\Local\Temp\ccTQTOKf.s 			page 14


 326:Generated_Source\PSoC5/cyfitter_cfg.c **** 
 327:Generated_Source\PSoC5/cyfitter_cfg.c **** 	/* Enable/Disable Debug functionality based on settings from System DWR */
 328:Generated_Source\PSoC5/cyfitter_cfg.c **** 	CY_SET_XTND_REG8((void CYFAR *)CYREG_MLOGIC_DEBUG, (CY_GET_XTND_REG8((void CYFAR *)CYREG_MLOGIC_DE
 380              		.loc 1 328 0
 381              		.thumb
 382              		.syntax unified
 383 0004 204A     		ldr	r2, .L31
 384 0006 1378     		ldrb	r3, [r2]	@ zero_extendqisi2
 385 0008 43F00403 		orr	r3, r3, #4
 386 000c 1370     		strb	r3, [r2]
 387              	.LVL25:
 388              	.LBB2:
 329:Generated_Source\PSoC5/cyfitter_cfg.c **** 
 330:Generated_Source\PSoC5/cyfitter_cfg.c **** 	{
 331:Generated_Source\PSoC5/cyfitter_cfg.c **** 
 332:Generated_Source\PSoC5/cyfitter_cfg.c **** 		CYPACKED typedef struct {
 333:Generated_Source\PSoC5/cyfitter_cfg.c **** 			void CYFAR *address;
 334:Generated_Source\PSoC5/cyfitter_cfg.c **** 			uint16 size;
 335:Generated_Source\PSoC5/cyfitter_cfg.c **** 		} CYPACKED_ATTR cfg_memset_t;
 336:Generated_Source\PSoC5/cyfitter_cfg.c **** 
 337:Generated_Source\PSoC5/cyfitter_cfg.c **** 		static const cfg_memset_t CYCODE cfg_memset_list[] = {
 338:Generated_Source\PSoC5/cyfitter_cfg.c **** 			/* address, size */
 339:Generated_Source\PSoC5/cyfitter_cfg.c **** 			{(void CYFAR *)(CYREG_PRT0_DR), 16u},
 340:Generated_Source\PSoC5/cyfitter_cfg.c **** 			{(void CYFAR *)(CYREG_PRT2_DR), 32u},
 341:Generated_Source\PSoC5/cyfitter_cfg.c **** 			{(void CYFAR *)(CYREG_PRT5_DR), 32u},
 342:Generated_Source\PSoC5/cyfitter_cfg.c **** 			{(void CYFAR *)(CYREG_PRT12_DR), 16u},
 343:Generated_Source\PSoC5/cyfitter_cfg.c **** 			{(void CYFAR *)(CYREG_PRT15_DR), 16u},
 344:Generated_Source\PSoC5/cyfitter_cfg.c **** 			{(void CYFAR *)(CYDEV_UCFG_B0_P0_U0_BASE), 4096u},
 345:Generated_Source\PSoC5/cyfitter_cfg.c **** 			{(void CYFAR *)(CYDEV_UCFG_B1_P2_U0_BASE), 2048u},
 346:Generated_Source\PSoC5/cyfitter_cfg.c **** 			{(void CYFAR *)(CYDEV_UCFG_DSI0_BASE), 2560u},
 347:Generated_Source\PSoC5/cyfitter_cfg.c **** 			{(void CYFAR *)(CYDEV_UCFG_DSI12_BASE), 512u},
 348:Generated_Source\PSoC5/cyfitter_cfg.c **** 			{(void CYFAR *)(CYREG_BCTL0_MDCLK_EN), 32u},
 349:Generated_Source\PSoC5/cyfitter_cfg.c **** 		};
 350:Generated_Source\PSoC5/cyfitter_cfg.c **** 
 351:Generated_Source\PSoC5/cyfitter_cfg.c **** 		uint8 CYDATA i;
 352:Generated_Source\PSoC5/cyfitter_cfg.c **** 
 353:Generated_Source\PSoC5/cyfitter_cfg.c **** 		/* Zero out critical memory blocks before beginning configuration */
 354:Generated_Source\PSoC5/cyfitter_cfg.c **** 		for (i = 0u; i < (sizeof(cfg_memset_list)/sizeof(cfg_memset_list[0])); i++)
 389              		.loc 1 354 0
 390 000e 0024     		movs	r4, #0
 391 0010 0CE0     		b	.L28
 392              	.LVL26:
 393              	.L29:
 394              	.LBB3:
 355:Generated_Source\PSoC5/cyfitter_cfg.c **** 		{
 356:Generated_Source\PSoC5/cyfitter_cfg.c **** 			const cfg_memset_t CYCODE * CYDATA ms = &cfg_memset_list[i];
 357:Generated_Source\PSoC5/cyfitter_cfg.c **** 			CYMEMZERO(ms->address, (size_t)(uint32)(ms->size));
 395              		.loc 1 357 0 discriminator 3
 396 0012 1E4D     		ldr	r5, .L31+4
 397 0014 6300     		lsls	r3, r4, #1
 398 0016 1919     		adds	r1, r3, r4
 399 0018 4A00     		lsls	r2, r1, #1
 400 001a 1146     		mov	r1, r2
 401 001c 2A44     		add	r2, r2, r5
 402 001e 0846     		mov	r0, r1
 403 0020 9188     		ldrh	r1, [r2, #4]
 404 0022 2858     		ldr	r0, [r5, r0]	@ unaligned
ARM GAS  C:\Users\ujjjh\AppData\Local\Temp\ccTQTOKf.s 			page 15


 405 0024 FFF7FEFF 		bl	CYMEMZERO
 406              	.LVL27:
 407              	.LBE3:
 354:Generated_Source\PSoC5/cyfitter_cfg.c **** 		{
 408              		.loc 1 354 0 discriminator 3
 409 0028 0134     		adds	r4, r4, #1
 410              	.LVL28:
 411 002a E4B2     		uxtb	r4, r4
 412              	.LVL29:
 413              	.L28:
 354:Generated_Source\PSoC5/cyfitter_cfg.c **** 		{
 414              		.loc 1 354 0 is_stmt 0 discriminator 1
 415 002c 092C     		cmp	r4, #9
 416 002e F0D9     		bls	.L29
 358:Generated_Source\PSoC5/cyfitter_cfg.c **** 		}
 359:Generated_Source\PSoC5/cyfitter_cfg.c **** 
 360:Generated_Source\PSoC5/cyfitter_cfg.c **** 		/* Enable digital routing */
 361:Generated_Source\PSoC5/cyfitter_cfg.c **** 		CY_SET_XTND_REG8((void CYFAR *)CYREG_BCTL0_BANK_CTL, CY_GET_XTND_REG8((void CYFAR *)CYREG_BCTL0_B
 417              		.loc 1 361 0 is_stmt 1
 418 0030 174A     		ldr	r2, .L31+8
 419 0032 1378     		ldrb	r3, [r2]	@ zero_extendqisi2
 420 0034 43F00203 		orr	r3, r3, #2
 421 0038 1370     		strb	r3, [r2]
 362:Generated_Source\PSoC5/cyfitter_cfg.c **** 		CY_SET_XTND_REG8((void CYFAR *)CYREG_BCTL1_BANK_CTL, CY_GET_XTND_REG8((void CYFAR *)CYREG_BCTL1_B
 422              		.loc 1 362 0
 423 003a 1032     		adds	r2, r2, #16
 424 003c 1378     		ldrb	r3, [r2]	@ zero_extendqisi2
 425 003e 43F00203 		orr	r3, r3, #2
 426 0042 1370     		strb	r3, [r2]
 427              	.LBE2:
 363:Generated_Source\PSoC5/cyfitter_cfg.c **** 	}
 364:Generated_Source\PSoC5/cyfitter_cfg.c **** 
 365:Generated_Source\PSoC5/cyfitter_cfg.c **** 
 366:Generated_Source\PSoC5/cyfitter_cfg.c **** 	/* Perform second pass device configuration. These items must be configured in specific order afte
 367:Generated_Source\PSoC5/cyfitter_cfg.c **** 	CYCONFIGCPY((void CYFAR *)(CYREG_PRT1_DM0), (const void CYFAR *)(BS_IOPINS0_1_VAL), 8u);
 428              		.loc 1 367 0
 429 0044 0822     		movs	r2, #8
 430 0046 4FF09041 		mov	r1, #1207959552
 431 004a 1248     		ldr	r0, .L31+12
 432 004c FFF7FEFF 		bl	CYCONFIGCPY
 433              	.LVL30:
 368:Generated_Source\PSoC5/cyfitter_cfg.c **** 	CYCONFIGCPY((void CYFAR *)(CYREG_PRT4_DM0), (const void CYFAR *)(BS_IOPINS0_4_VAL), 8u);
 434              		.loc 1 368 0
 435 0050 0822     		movs	r2, #8
 436 0052 1149     		ldr	r1, .L31+16
 437 0054 1148     		ldr	r0, .L31+20
 438 0056 FFF7FEFF 		bl	CYCONFIGCPY
 439              	.LVL31:
 369:Generated_Source\PSoC5/cyfitter_cfg.c **** 	/* Switch Boost to the precision bandgap reference from its internal reference */
 370:Generated_Source\PSoC5/cyfitter_cfg.c **** 	CY_SET_REG8((void CYXDATA *)CYREG_BOOST_CR2, (CY_GET_REG8((void CYXDATA *)CYREG_BOOST_CR2) | 0x08u
 440              		.loc 1 370 0
 441 005a 114A     		ldr	r2, .L31+24
 442 005c 1378     		ldrb	r3, [r2]	@ zero_extendqisi2
 443 005e 43F00803 		orr	r3, r3, #8
 444 0062 1370     		strb	r3, [r2]
 371:Generated_Source\PSoC5/cyfitter_cfg.c **** 
 372:Generated_Source\PSoC5/cyfitter_cfg.c **** 	/* Set Flash Cycles based on max possible frequency in case a glitch occurs during ClockSetup(). *
ARM GAS  C:\Users\ujjjh\AppData\Local\Temp\ccTQTOKf.s 			page 16


 373:Generated_Source\PSoC5/cyfitter_cfg.c **** 	CY_SET_XTND_REG8((void CYFAR *)(CYREG_CACHE_CC_CTL), (((CYDEV_INSTRUCT_CACHE_ENABLED) != 0) ? 0x61
 445              		.loc 1 373 0
 446 0064 0F4C     		ldr	r4, .L31+28
 447              	.LVL32:
 448 0066 6123     		movs	r3, #97
 449 0068 2370     		strb	r3, [r4]
 374:Generated_Source\PSoC5/cyfitter_cfg.c **** 	/* Setup clocks based on selections from Clock DWR */
 375:Generated_Source\PSoC5/cyfitter_cfg.c **** 	ClockSetup();
 450              		.loc 1 375 0
 451 006a FFF7FEFF 		bl	ClockSetup
 452              	.LVL33:
 376:Generated_Source\PSoC5/cyfitter_cfg.c **** 	/* Set Flash Cycles based on newly configured 33.00MHz Bus Clock. */
 377:Generated_Source\PSoC5/cyfitter_cfg.c **** 	CY_SET_XTND_REG8((void CYFAR *)(CYREG_CACHE_CC_CTL), (((CYDEV_INSTRUCT_CACHE_ENABLED) != 0) ? 0x81
 453              		.loc 1 377 0
 454 006e 8123     		movs	r3, #129
 455 0070 2370     		strb	r3, [r4]
 378:Generated_Source\PSoC5/cyfitter_cfg.c **** 	CY_SET_XTND_REG8((void CYFAR *)(CYREG_PANTHER_WAITPIPE), 0x01u);
 456              		.loc 1 378 0
 457 0072 0122     		movs	r2, #1
 458 0074 0C4B     		ldr	r3, .L31+32
 459 0076 1A70     		strb	r2, [r3]
 379:Generated_Source\PSoC5/cyfitter_cfg.c **** 
 380:Generated_Source\PSoC5/cyfitter_cfg.c **** 	/* Perform basic analog initialization to defaults */
 381:Generated_Source\PSoC5/cyfitter_cfg.c **** 	AnalogSetDefault();
 460              		.loc 1 381 0
 461 0078 FFF7FEFF 		bl	AnalogSetDefault
 462              	.LVL34:
 382:Generated_Source\PSoC5/cyfitter_cfg.c **** 
 383:Generated_Source\PSoC5/cyfitter_cfg.c **** 	/* Configure alternate active mode */
 384:Generated_Source\PSoC5/cyfitter_cfg.c **** 	CYCONFIGCPY((void CYFAR *)CYDEV_PM_STBY_BASE, (const void CYFAR *)CYDEV_PM_ACT_BASE, 14u);
 463              		.loc 1 384 0
 464 007c 0E22     		movs	r2, #14
 465 007e 0B49     		ldr	r1, .L31+36
 466 0080 0B48     		ldr	r0, .L31+40
 467 0082 FFF7FEFF 		bl	CYCONFIGCPY
 468              	.LVL35:
 469 0086 38BD     		pop	{r3, r4, r5, pc}
 470              	.L32:
 471              		.align	2
 472              	.L31:
 473 0088 E8460040 		.word	1073759976
 474 008c 00000000 		.word	.LANCHOR0
 475 0090 03500140 		.word	1073827843
 476 0094 12510040 		.word	1073762578
 477 0098 08000048 		.word	1207959560
 478 009c 42510040 		.word	1073762626
 479 00a0 22430040 		.word	1073759010
 480 00a4 00480040 		.word	1073760256
 481 00a8 04000840 		.word	1074266116
 482 00ac A0430040 		.word	1073759136
 483 00b0 B0430040 		.word	1073759152
 484              		.cfi_endproc
 485              	.LFE7:
 486              		.size	cyfitter_cfg, .-cyfitter_cfg
 487              		.section	.rodata
 488              		.align	2
 489              		.set	.LANCHOR0,. + 0
ARM GAS  C:\Users\ujjjh\AppData\Local\Temp\ccTQTOKf.s 			page 17


 490              		.type	cfg_memset_list.4995, %object
 491              		.size	cfg_memset_list.4995, 60
 492              	cfg_memset_list.4995:
 493 0000 00510040 		.word	1073762560
 494 0004 1000     		.short	16
 495 0006 20510040 		.4byte	1073762592
 496 000a 2000     		.short	32
 497 000c 50510040 		.word	1073762640
 498 0010 2000     		.short	32
 499 0012 C0510040 		.4byte	1073762752
 500 0016 1000     		.short	16
 501 0018 F0510040 		.word	1073762800
 502 001c 1000     		.short	16
 503 001e 00000140 		.4byte	1073807360
 504 0022 0010     		.short	4096
 505 0024 00140140 		.word	1073812480
 506 0028 0008     		.short	2048
 507 002a 00400140 		.4byte	1073823744
 508 002e 000A     		.short	2560
 509 0030 004C0140 		.word	1073826816
 510 0034 0002     		.short	512
 511 0036 00500140 		.4byte	1073827840
 512 003a 2000     		.short	32
 513              		.text
 514              	.Letext0:
 515              		.file 2 "c:\\program files (x86)\\cypress\\psoc creator\\4.2\\psoc creator\\import\\gnu\\arm\\5.4.
 516              		.file 3 "Generated_Source\\PSoC5\\cytypes.h"
 517              		.file 4 "Generated_Source\\PSoC5\\CyLib.h"