ARM GAS  C:\Users\ujjjh\AppData\Local\Temp\cckPc5Tg.s 			page 1


   1              		.syntax unified
   2              		.cpu cortex-m3
   3              		.fpu softvfp
   4              		.eabi_attribute 20, 1
   5              		.eabi_attribute 21, 1
   6              		.eabi_attribute 23, 3
   7              		.eabi_attribute 24, 1
   8              		.eabi_attribute 25, 1
   9              		.eabi_attribute 26, 1
  10              		.eabi_attribute 30, 1
  11              		.eabi_attribute 34, 1
  12              		.eabi_attribute 18, 4
  13              		.thumb
  14              		.syntax unified
  15              		.file	"main.c"
  16              		.text
  17              	.Ltext0:
  18              		.cfi_sections	.debug_frame
  19              		.section	.text.main,"ax",%progbits
  20              		.align	2
  21              		.global	main
  22              		.thumb
  23              		.thumb_func
  24              		.type	main, %function
  25              	main:
  26              	.LFB64:
  27              		.file 1 "main.c"
   1:main.c        **** 
   2:main.c        **** #include "project.h"
   3:main.c        **** #include "stdio.h"
   4:main.c        **** char8 buffer[30];
   5:main.c        **** uint8 var;
   6:main.c        **** 
   7:main.c        **** 
   8:main.c        **** int main(void)
   9:main.c        **** {
  28              		.loc 1 9 0
  29              		.cfi_startproc
  30              		@ args = 0, pretend = 0, frame = 0
  31              		@ frame_needed = 0, uses_anonymous_args = 0
  32 0000 38B5     		push	{r3, r4, r5, lr}
  33              		.cfi_def_cfa_offset 16
  34              		.cfi_offset 3, -16
  35              		.cfi_offset 4, -12
  36              		.cfi_offset 5, -8
  37              		.cfi_offset 14, -4
  10:main.c        ****     CyGlobalIntEnable;
  38              		.loc 1 10 0
  39              		.syntax unified
  40              	@ 10 "main.c" 1
  41 0002 62B6     		CPSIE   i
  42              	@ 0 "" 2
  11:main.c        ****     UART_1_Start();
  43              		.loc 1 11 0
  44              		.thumb
  45              		.syntax unified
  46 0004 FFF7FEFF 		bl	UART_1_Start
ARM GAS  C:\Users\ujjjh\AppData\Local\Temp\cckPc5Tg.s 			page 2


  47              	.LVL0:
  12:main.c        ****     int i;
  13:main.c        ****     for(i=0; i<100; i++)
  48              		.loc 1 13 0
  49 0008 0024     		movs	r4, #0
  50 000a 0DE0     		b	.L2
  51              	.LVL1:
  52              	.L3:
  53              	.LBB2:
  14:main.c        ****     {
  15:main.c        ****         uint8 var=i;
  16:main.c        ****         sprintf(buffer, "%x\r\n", var);
  54              		.loc 1 16 0 discriminator 3
  55 000c 084D     		ldr	r5, .L5
  56 000e E2B2     		uxtb	r2, r4
  57 0010 0849     		ldr	r1, .L5+4
  58 0012 2846     		mov	r0, r5
  59 0014 FFF7FEFF 		bl	sprintf
  60              	.LVL2:
  17:main.c        ****         UART_1_PutString(buffer);
  61              		.loc 1 17 0 discriminator 3
  62 0018 2846     		mov	r0, r5
  63 001a FFF7FEFF 		bl	UART_1_PutString
  64              	.LVL3:
  18:main.c        ****         CyDelay(1000);
  65              		.loc 1 18 0 discriminator 3
  66 001e 4FF47A70 		mov	r0, #1000
  67 0022 FFF7FEFF 		bl	CyDelay
  68              	.LVL4:
  69              	.LBE2:
  13:main.c        ****     {
  70              		.loc 1 13 0 discriminator 3
  71 0026 0134     		adds	r4, r4, #1
  72              	.LVL5:
  73              	.L2:
  13:main.c        ****     {
  74              		.loc 1 13 0 is_stmt 0 discriminator 1
  75 0028 632C     		cmp	r4, #99
  76 002a EFDD     		ble	.L3
  19:main.c        ****         
  20:main.c        ****     }
  21:main.c        **** }
  77              		.loc 1 21 0 is_stmt 1
  78 002c 0020     		movs	r0, #0
  79 002e 38BD     		pop	{r3, r4, r5, pc}
  80              	.LVL6:
  81              	.L6:
  82              		.align	2
  83              	.L5:
  84 0030 00000000 		.word	buffer
  85 0034 00000000 		.word	.LC0
  86              		.cfi_endproc
  87              	.LFE64:
  88              		.size	main, .-main
  89              		.comm	var,1,1
  90              		.comm	buffer,30,4
  91              		.section	.rodata.str1.4,"aMS",%progbits,1
ARM GAS  C:\Users\ujjjh\AppData\Local\Temp\cckPc5Tg.s 			page 3


  92              		.align	2
  93              	.LC0:
  94 0000 25780D0A 		.ascii	"%x\015\012\000"
  94      00
  95              		.text
  96              	.Letext0:
  97              		.file 2 "c:\\program files (x86)\\cypress\\psoc creator\\4.2\\psoc creator\\import\\gnu\\arm\\5.4.
  98              		.file 3 "c:\\program files (x86)\\cypress\\psoc creator\\4.2\\psoc creator\\import\\gnu\\arm\\5.4.
  99              		.file 4 "Generated_Source\\PSoC5/cytypes.h"
 100              		.file 5 "Generated_Source\\PSoC5/core_cm3.h"
 101              		.file 6 "c:\\program files (x86)\\cypress\\psoc creator\\4.2\\psoc creator\\import\\gnu\\arm\\5.4.
 102              		.file 7 "Generated_Source\\PSoC5/UART_1.h"
 103              		.file 8 "Generated_Source\\PSoC5/CyLib.h"